TN:
SF:/usr/include/c++/11/bits/alloc_traits.h
FN:463,_ZNSt16allocator_traitsISaIcEE8allocateERS0_m
FNDA:115,_ZNSt16allocator_traitsISaIcEE8allocateERS0_m
FN:495,_ZNSt16allocator_traitsISaIcEE10deallocateERS0_Pcm
FNDA:88,_ZNSt16allocator_traitsISaIcEE10deallocateERS0_Pcm
FN:547,_ZNSt16allocator_traitsISaIcEE8max_sizeERKS0_
FNDA:158,_ZNSt16allocator_traitsISaIcEE8max_sizeERKS0_
DA:463,115
DA:464,115
DA:495,88
DA:496,88
DA:547,158
DA:552,158
end_of_record
SF:/usr/include/c++/11/bits/std_thread.h
FN:86,_ZNSt6thread2idC2Ev
FNDA:16,_ZNSt6thread2idC2Ev
FN:127,_ZNSt6threadC2IZN22EventFlagTest_And_Test8TestBodyEvEUlvE_JEvEEOT_DpOT0_
FNDA:1,_ZNSt6threadC2IZN22EventFlagTest_And_Test8TestBodyEvEUlvE_JEvEEOT_DpOT0_
FN:127,_ZNSt6threadC2IZN21EventFlagTest_Or_Test8TestBodyEvEUlvE_JEvEEOT_DpOT0_
FNDA:1,_ZNSt6threadC2IZN21EventFlagTest_Or_Test8TestBodyEvEUlvE_JEvEEOT_DpOT0_
FN:127,_ZNSt6threadC2IZN31EventFlagTest_TimedOut_And_Test8TestBodyEvEUlvE_JEvEEOT_DpOT0_
FNDA:1,_ZNSt6threadC2IZN31EventFlagTest_TimedOut_And_Test8TestBodyEvEUlvE_JEvEEOT_DpOT0_
FN:127,_ZNSt6threadC2IZN30EventFlagTest_TimedOut_Or_Test8TestBodyEvEUlvE_JEvEEOT_DpOT0_
FNDA:1,_ZNSt6threadC2IZN30EventFlagTest_TimedOut_Or_Test8TestBodyEvEUlvE_JEvEEOT_DpOT0_
FN:127,_ZNSt6threadC2IRSt8functionIFvvEEJEvEEOT_DpOT0_
FNDA:2,_ZNSt6threadC2IRSt8functionIFvvEEJEvEEOT_DpOT0_
FN:127,_ZNSt6threadC2IZN33EventFlagTest_WaitMultiple_2_Test8TestBodyEvEUlvE_JEvEEOT_DpOT0_
FNDA:1,_ZNSt6threadC2IZN33EventFlagTest_WaitMultiple_2_Test8TestBodyEvEUlvE_JEvEEOT_DpOT0_
FN:127,_ZNSt6threadC2IZN33EventFlagTest_WaitMultiple_2_Test8TestBodyEvEUlvE0_JEvEEOT_DpOT0_
FNDA:1,_ZNSt6threadC2IZN33EventFlagTest_WaitMultiple_2_Test8TestBodyEvEUlvE0_JEvEEOT_DpOT0_
FN:149,_ZNSt6threadD2Ev
FNDA:8,_ZNSt6threadD2Ev
FN:175,_ZNKSt6thread8joinableEv
FNDA:8,_ZNKSt6thread8joinableEv
FN:206,_ZNSt6thread11_State_implINS_8_InvokerISt5tupleIJZN31EventFlagTest_TimedOut_And_Test8TestBodyEvEUlvE_EEEEEC2IJS4_EEEDpOT_
FNDA:1,_ZNSt6thread11_State_implINS_8_InvokerISt5tupleIJZN31EventFlagTest_TimedOut_And_Test8TestBodyEvEUlvE_EEEEEC2IJS4_EEEDpOT_
FN:206,_ZNSt6thread11_State_implINS_8_InvokerISt5tupleIJZN33EventFlagTest_WaitMultiple_2_Test8TestBodyEvEUlvE0_EEEEEC2IJS4_EEEDpOT_
FNDA:1,_ZNSt6thread11_State_implINS_8_InvokerISt5tupleIJZN33EventFlagTest_WaitMultiple_2_Test8TestBodyEvEUlvE0_EEEEEC2IJS4_EEEDpOT_
FN:206,_ZNSt6thread11_State_implINS_8_InvokerISt5tupleIJZN33EventFlagTest_WaitMultiple_2_Test8TestBodyEvEUlvE_EEEEEC2IJS4_EEEDpOT_
FNDA:1,_ZNSt6thread11_State_implINS_8_InvokerISt5tupleIJZN33EventFlagTest_WaitMultiple_2_Test8TestBodyEvEUlvE_EEEEEC2IJS4_EEEDpOT_
FN:206,_ZNSt6thread11_State_implINS_8_InvokerISt5tupleIJSt8functionIFvvEEEEEEEC2IJRS5_EEEDpOT_
FNDA:2,_ZNSt6thread11_State_implINS_8_InvokerISt5tupleIJSt8functionIFvvEEEEEEEC2IJRS5_EEEDpOT_
FN:206,_ZNSt6thread11_State_implINS_8_InvokerISt5tupleIJZN30EventFlagTest_TimedOut_Or_Test8TestBodyEvEUlvE_EEEEEC2IJS4_EEEDpOT_
FNDA:1,_ZNSt6thread11_State_implINS_8_InvokerISt5tupleIJZN30EventFlagTest_TimedOut_Or_Test8TestBodyEvEUlvE_EEEEEC2IJS4_EEEDpOT_
FN:206,_ZNSt6thread11_State_implINS_8_InvokerISt5tupleIJZN21EventFlagTest_Or_Test8TestBodyEvEUlvE_EEEEEC2IJS4_EEEDpOT_
FNDA:1,_ZNSt6thread11_State_implINS_8_InvokerISt5tupleIJZN21EventFlagTest_Or_Test8TestBodyEvEUlvE_EEEEEC2IJS4_EEEDpOT_
FN:206,_ZNSt6thread11_State_implINS_8_InvokerISt5tupleIJZN22EventFlagTest_And_Test8TestBodyEvEUlvE_EEEEEC2IJS4_EEEDpOT_
FNDA:1,_ZNSt6thread11_State_implINS_8_InvokerISt5tupleIJZN22EventFlagTest_And_Test8TestBodyEvEUlvE_EEEEEC2IJS4_EEEDpOT_
FN:211,_ZNSt6thread11_State_implINS_8_InvokerISt5tupleIJZN21EventFlagTest_Or_Test8TestBodyEvEUlvE_EEEEE6_M_runEv
FNDA:1,_ZNSt6thread11_State_implINS_8_InvokerISt5tupleIJZN21EventFlagTest_Or_Test8TestBodyEvEUlvE_EEEEE6_M_runEv
FN:211,_ZNSt6thread11_State_implINS_8_InvokerISt5tupleIJZN31EventFlagTest_TimedOut_And_Test8TestBodyEvEUlvE_EEEEE6_M_runEv
FNDA:1,_ZNSt6thread11_State_implINS_8_InvokerISt5tupleIJZN31EventFlagTest_TimedOut_And_Test8TestBodyEvEUlvE_EEEEE6_M_runEv
FN:211,_ZNSt6thread11_State_implINS_8_InvokerISt5tupleIJZN30EventFlagTest_TimedOut_Or_Test8TestBodyEvEUlvE_EEEEE6_M_runEv
FNDA:1,_ZNSt6thread11_State_implINS_8_InvokerISt5tupleIJZN30EventFlagTest_TimedOut_Or_Test8TestBodyEvEUlvE_EEEEE6_M_runEv
FN:211,_ZNSt6thread11_State_implINS_8_InvokerISt5tupleIJSt8functionIFvvEEEEEEE6_M_runEv
FNDA:2,_ZNSt6thread11_State_implINS_8_InvokerISt5tupleIJSt8functionIFvvEEEEEEE6_M_runEv
FN:211,_ZNSt6thread11_State_implINS_8_InvokerISt5tupleIJZN33EventFlagTest_WaitMultiple_2_Test8TestBodyEvEUlvE_EEEEE6_M_runEv
FNDA:1,_ZNSt6thread11_State_implINS_8_InvokerISt5tupleIJZN33EventFlagTest_WaitMultiple_2_Test8TestBodyEvEUlvE_EEEEE6_M_runEv
FN:211,_ZNSt6thread11_State_implINS_8_InvokerISt5tupleIJZN33EventFlagTest_WaitMultiple_2_Test8TestBodyEvEUlvE0_EEEEE6_M_runEv
FNDA:1,_ZNSt6thread11_State_implINS_8_InvokerISt5tupleIJZN33EventFlagTest_WaitMultiple_2_Test8TestBodyEvEUlvE0_EEEEE6_M_runEv
FN:211,_ZNSt6thread11_State_implINS_8_InvokerISt5tupleIJZN22EventFlagTest_And_Test8TestBodyEvEUlvE_EEEEE6_M_runEv
FNDA:1,_ZNSt6thread11_State_implINS_8_InvokerISt5tupleIJZN22EventFlagTest_And_Test8TestBodyEvEUlvE_EEEEE6_M_runEv
FN:243,_ZNSt6thread8_InvokerISt5tupleIJSt8functionIFvvEEEEEC2IJRS4_EEEDpOT_
FNDA:2,_ZNSt6thread8_InvokerISt5tupleIJSt8functionIFvvEEEEEC2IJRS4_EEEDpOT_
FN:243,_ZNSt6thread8_InvokerISt5tupleIJZN22EventFlagTest_And_Test8TestBodyEvEUlvE_EEEC2IJS3_EEEDpOT_
FNDA:1,_ZNSt6thread8_InvokerISt5tupleIJZN22EventFlagTest_And_Test8TestBodyEvEUlvE_EEEC2IJS3_EEEDpOT_
FN:243,_ZNSt6thread8_InvokerISt5tupleIJZN31EventFlagTest_TimedOut_And_Test8TestBodyEvEUlvE_EEEC2IJS3_EEEDpOT_
FNDA:1,_ZNSt6thread8_InvokerISt5tupleIJZN31EventFlagTest_TimedOut_And_Test8TestBodyEvEUlvE_EEEC2IJS3_EEEDpOT_
FN:243,_ZNSt6thread8_InvokerISt5tupleIJZN30EventFlagTest_TimedOut_Or_Test8TestBodyEvEUlvE_EEEC2IJS3_EEEDpOT_
FNDA:1,_ZNSt6thread8_InvokerISt5tupleIJZN30EventFlagTest_TimedOut_Or_Test8TestBodyEvEUlvE_EEEC2IJS3_EEEDpOT_
FN:243,_ZNSt6thread8_InvokerISt5tupleIJZN21EventFlagTest_Or_Test8TestBodyEvEUlvE_EEEC2IJS3_EEEDpOT_
FNDA:1,_ZNSt6thread8_InvokerISt5tupleIJZN21EventFlagTest_Or_Test8TestBodyEvEUlvE_EEEC2IJS3_EEEDpOT_
FN:243,_ZNSt6thread8_InvokerISt5tupleIJZN33EventFlagTest_WaitMultiple_2_Test8TestBodyEvEUlvE_EEEC2IJS3_EEEDpOT_
FNDA:1,_ZNSt6thread8_InvokerISt5tupleIJZN33EventFlagTest_WaitMultiple_2_Test8TestBodyEvEUlvE_EEEC2IJS3_EEEDpOT_
FN:243,_ZNSt6thread8_InvokerISt5tupleIJZN33EventFlagTest_WaitMultiple_2_Test8TestBodyEvEUlvE0_EEEC2IJS3_EEEDpOT_
FNDA:1,_ZNSt6thread8_InvokerISt5tupleIJZN33EventFlagTest_WaitMultiple_2_Test8TestBodyEvEUlvE0_EEEC2IJS3_EEEDpOT_
FN:258,_ZNSt6thread8_InvokerISt5tupleIJZN21EventFlagTest_Or_Test8TestBodyEvEUlvE_EEE9_M_invokeIJLm0EEEEvSt12_Index_tupleIJXspT_EEE
FNDA:1,_ZNSt6thread8_InvokerISt5tupleIJZN21EventFlagTest_Or_Test8TestBodyEvEUlvE_EEE9_M_invokeIJLm0EEEEvSt12_Index_tupleIJXspT_EEE
FN:258,_ZNSt6thread8_InvokerISt5tupleIJZN31EventFlagTest_TimedOut_And_Test8TestBodyEvEUlvE_EEE9_M_invokeIJLm0EEEEvSt12_Index_tupleIJXspT_EEE
FNDA:1,_ZNSt6thread8_InvokerISt5tupleIJZN31EventFlagTest_TimedOut_And_Test8TestBodyEvEUlvE_EEE9_M_invokeIJLm0EEEEvSt12_Index_tupleIJXspT_EEE
FN:258,_ZNSt6thread8_InvokerISt5tupleIJZN30EventFlagTest_TimedOut_Or_Test8TestBodyEvEUlvE_EEE9_M_invokeIJLm0EEEEvSt12_Index_tupleIJXspT_EEE
FNDA:1,_ZNSt6thread8_InvokerISt5tupleIJZN30EventFlagTest_TimedOut_Or_Test8TestBodyEvEUlvE_EEE9_M_invokeIJLm0EEEEvSt12_Index_tupleIJXspT_EEE
FN:258,_ZNSt6thread8_InvokerISt5tupleIJSt8functionIFvvEEEEE9_M_invokeIJLm0EEEEvSt12_Index_tupleIJXspT_EEE
FNDA:2,_ZNSt6thread8_InvokerISt5tupleIJSt8functionIFvvEEEEE9_M_invokeIJLm0EEEEvSt12_Index_tupleIJXspT_EEE
FN:258,_ZNSt6thread8_InvokerISt5tupleIJZN33EventFlagTest_WaitMultiple_2_Test8TestBodyEvEUlvE_EEE9_M_invokeIJLm0EEEEvSt12_Index_tupleIJXspT_EEE
FNDA:1,_ZNSt6thread8_InvokerISt5tupleIJZN33EventFlagTest_WaitMultiple_2_Test8TestBodyEvEUlvE_EEE9_M_invokeIJLm0EEEEvSt12_Index_tupleIJXspT_EEE
FN:258,_ZNSt6thread8_InvokerISt5tupleIJZN33EventFlagTest_WaitMultiple_2_Test8TestBodyEvEUlvE0_EEE9_M_invokeIJLm0EEEEvSt12_Index_tupleIJXspT_EEE
FNDA:1,_ZNSt6thread8_InvokerISt5tupleIJZN33EventFlagTest_WaitMultiple_2_Test8TestBodyEvEUlvE0_EEE9_M_invokeIJLm0EEEEvSt12_Index_tupleIJXspT_EEE
FN:258,_ZNSt6thread8_InvokerISt5tupleIJZN22EventFlagTest_And_Test8TestBodyEvEUlvE_EEE9_M_invokeIJLm0EEEEvSt12_Index_tupleIJXspT_EEE
FNDA:1,_ZNSt6thread8_InvokerISt5tupleIJZN22EventFlagTest_And_Test8TestBodyEvEUlvE_EEE9_M_invokeIJLm0EEEEvSt12_Index_tupleIJXspT_EEE
FN:262,_ZNSt6thread8_InvokerISt5tupleIJZN21EventFlagTest_Or_Test8TestBodyEvEUlvE_EEEclEv
FNDA:1,_ZNSt6thread8_InvokerISt5tupleIJZN21EventFlagTest_Or_Test8TestBodyEvEUlvE_EEEclEv
FN:262,_ZNSt6thread8_InvokerISt5tupleIJZN22EventFlagTest_And_Test8TestBodyEvEUlvE_EEEclEv
FNDA:1,_ZNSt6thread8_InvokerISt5tupleIJZN22EventFlagTest_And_Test8TestBodyEvEUlvE_EEEclEv
FN:262,_ZNSt6thread8_InvokerISt5tupleIJZN31EventFlagTest_TimedOut_And_Test8TestBodyEvEUlvE_EEEclEv
FNDA:1,_ZNSt6thread8_InvokerISt5tupleIJZN31EventFlagTest_TimedOut_And_Test8TestBodyEvEUlvE_EEEclEv
FN:262,_ZNSt6thread8_InvokerISt5tupleIJZN30EventFlagTest_TimedOut_Or_Test8TestBodyEvEUlvE_EEEclEv
FNDA:1,_ZNSt6thread8_InvokerISt5tupleIJZN30EventFlagTest_TimedOut_Or_Test8TestBodyEvEUlvE_EEEclEv
FN:262,_ZNSt6thread8_InvokerISt5tupleIJSt8functionIFvvEEEEEclEv
FNDA:2,_ZNSt6thread8_InvokerISt5tupleIJSt8functionIFvvEEEEEclEv
FN:262,_ZNSt6thread8_InvokerISt5tupleIJZN33EventFlagTest_WaitMultiple_2_Test8TestBodyEvEUlvE_EEEclEv
FNDA:1,_ZNSt6thread8_InvokerISt5tupleIJZN33EventFlagTest_WaitMultiple_2_Test8TestBodyEvEUlvE_EEEclEv
FN:262,_ZNSt6thread8_InvokerISt5tupleIJZN33EventFlagTest_WaitMultiple_2_Test8TestBodyEvEUlvE0_EEEclEv
FNDA:1,_ZNSt6thread8_InvokerISt5tupleIJZN33EventFlagTest_WaitMultiple_2_Test8TestBodyEvEUlvE0_EEEclEv
FN:287,_ZSteqNSt6thread2idES0_
FNDA:8,_ZSteqNSt6thread2idES0_
DA:86,16
DA:127,1
DA:128,1
DA:138,1
DA:143,2
DA:144,1
DA:146,1
DA:127,1
DA:128,1
DA:138,1
DA:143,2
DA:144,1
DA:146,1
DA:127,2
DA:128,2
DA:138,2
DA:143,4
DA:144,2
DA:146,2
DA:127,1
DA:128,1
DA:138,1
DA:143,2
DA:144,1
DA:146,1
DA:127,1
DA:128,1
DA:138,1
DA:143,2
DA:144,1
DA:146,1
DA:127,1
DA:128,1
DA:138,1
DA:143,2
DA:144,1
DA:146,1
DA:127,1
DA:128,1
DA:138,1
DA:143,2
DA:144,1
DA:146,1
DA:149,8
DA:151,8
DA:152,0
DA:153,8
DA:175,8
DA:176,8
DA:206,1
DA:207,1
DA:208,1
DA:206,1
DA:207,1
DA:208,1
DA:206,2
DA:207,2
DA:208,2
DA:206,1
DA:207,1
DA:208,1
DA:206,1
DA:207,1
DA:208,1
DA:206,1
DA:207,1
DA:208,1
DA:206,1
DA:207,1
DA:208,1
DA:211,1
DA:211,1
DA:211,1
DA:211,1
DA:211,2
DA:211,1
DA:211,1
DA:243,1
DA:244,1
DA:245,1
DA:243,1
DA:244,1
DA:245,1
DA:243,2
DA:244,2
DA:245,2
DA:243,1
DA:244,1
DA:245,1
DA:243,1
DA:244,1
DA:245,1
DA:243,1
DA:244,1
DA:245,1
DA:243,1
DA:244,1
DA:245,1
DA:258,1
DA:259,1
DA:258,1
DA:259,1
DA:258,1
DA:259,1
DA:258,1
DA:259,1
DA:258,2
DA:259,2
DA:258,1
DA:259,1
DA:258,1
DA:259,1
DA:262,1
DA:266,1
DA:262,1
DA:266,1
DA:262,1
DA:266,1
DA:262,1
DA:266,1
DA:262,2
DA:266,2
DA:262,1
DA:266,1
DA:262,1
DA:266,1
DA:287,8
DA:293,8
end_of_record
SF:/usr/include/c++/11/chrono
FN:211,_ZNSt6chrono20__duration_cast_implINS_8durationIlSt5ratioILl1ELl1000000000EEEES2_ILl1ELl1EElLb1ELb1EE6__castIlS3_EES4_RKNS1_IT_T0_EE
FNDA:5,_ZNSt6chrono20__duration_cast_implINS_8durationIlSt5ratioILl1ELl1000000000EEEES2_ILl1ELl1EElLb1ELb1EE6__castIlS3_EES4_RKNS1_IT_T0_EE
FN:223,_ZNSt6chrono20__duration_cast_implINS_8durationIlSt5ratioILl1ELl1EEEES2_ILl1ELl1000000000EElLb1ELb0EE6__castIlS5_EES4_RKNS1_IT_T0_EE
FNDA:5,_ZNSt6chrono20__duration_cast_implINS_8durationIlSt5ratioILl1ELl1EEEES2_ILl1ELl1000000000EElLb1ELb0EE6__castIlS5_EES4_RKNS1_IT_T0_EE
FN:236,_ZNSt6chrono20__duration_cast_implINS_8durationIlSt5ratioILl1ELl1000EEEES2_ILl1000ELl1EElLb0ELb1EE6__castIlS2_ILl1ELl1EEEES4_RKNS1_IT_T0_EE
FNDA:6,_ZNSt6chrono20__duration_cast_implINS_8durationIlSt5ratioILl1ELl1000EEEES2_ILl1000ELl1EElLb0ELb1EE6__castIlS2_ILl1ELl1EEEES4_RKNS1_IT_T0_EE
FN:236,_ZNSt6chrono20__duration_cast_implINS_8durationIlSt5ratioILl1ELl1000000000EEEES2_ILl1000000ELl1EElLb0ELb1EE6__castIlS2_ILl1ELl1000EEEES4_RKNS1_IT_T0_EE
FNDA:12,_ZNSt6chrono20__duration_cast_implINS_8durationIlSt5ratioILl1ELl1000000000EEEES2_ILl1000000ELl1EElLb0ELb1EE6__castIlS2_ILl1ELl1000EEEES4_RKNS1_IT_T0_EE
FN:236,_ZNSt6chrono20__duration_cast_implINS_8durationIlSt5ratioILl1ELl1000000000EEEES2_ILl1000000000ELl1EElLb0ELb1EE6__castIlS2_ILl1ELl1EEEES4_RKNS1_IT_T0_EE
FNDA:15,_ZNSt6chrono20__duration_cast_implINS_8durationIlSt5ratioILl1ELl1000000000EEEES2_ILl1000000000ELl1EElLb0ELb1EE6__castIlS2_ILl1ELl1EEEES4_RKNS1_IT_T0_EE
FN:267,_ZNSt6chrono13duration_castINS_8durationIlSt5ratioILl1ELl1EEEElS2_ILl1ELl1000000000EEEENSt9enable_ifIXsrNS_13__is_durationIT_EE5valueES8_E4typeERKNS1_IT0_T1_EE
FNDA:5,_ZNSt6chrono13duration_castINS_8durationIlSt5ratioILl1ELl1EEEElS2_ILl1ELl1000000000EEEENSt9enable_ifIXsrNS_13__is_durationIT_EE5valueES8_E4typeERKNS1_IT0_T1_EE
FN:267,_ZNSt6chrono13duration_castINS_8durationIlSt5ratioILl1ELl1000000000EEEElS2_ILl1ELl1000EEEENSt9enable_ifIXsrNS_13__is_durationIT_EE5valueES8_E4typeERKNS1_IT0_T1_EE
FNDA:12,_ZNSt6chrono13duration_castINS_8durationIlSt5ratioILl1ELl1000000000EEEElS2_ILl1ELl1000EEEENSt9enable_ifIXsrNS_13__is_durationIT_EE5valueES8_E4typeERKNS1_IT0_T1_EE
FN:267,_ZNSt6chrono13duration_castINS_8durationIlSt5ratioILl1ELl1000000000EEEElS2_ILl1ELl1EEEENSt9enable_ifIXsrNS_13__is_durationIT_EE5valueES8_E4typeERKNS1_IT0_T1_EE
FNDA:15,_ZNSt6chrono13duration_castINS_8durationIlSt5ratioILl1ELl1000000000EEEElS2_ILl1ELl1EEEENSt9enable_ifIXsrNS_13__is_durationIT_EE5valueES8_E4typeERKNS1_IT0_T1_EE
FN:267,_ZNSt6chrono13duration_castINS_8durationIlSt5ratioILl1ELl1000EEEElS2_ILl1ELl1EEEENSt9enable_ifIXsrNS_13__is_durationIT_EE5valueES8_E4typeERKNS1_IT0_T1_EE
FNDA:6,_ZNSt6chrono13duration_castINS_8durationIlSt5ratioILl1ELl1000EEEElS2_ILl1ELl1EEEENSt9enable_ifIXsrNS_13__is_durationIT_EE5valueES8_E4typeERKNS1_IT0_T1_EE
FN:267,_ZNSt6chrono13duration_castINS_8durationIlSt5ratioILl1ELl1000000000EEEElS3_EENSt9enable_ifIXsrNS_13__is_durationIT_EE5valueES7_E4typeERKNS1_IT0_T1_EE
FNDA:5,_ZNSt6chrono13duration_castINS_8durationIlSt5ratioILl1ELl1000000000EEEElS3_EENSt9enable_ifIXsrNS_13__is_durationIT_EE5valueES7_E4typeERKNS1_IT0_T1_EE
FN:360,_ZNSt6chrono4ceilINS_8durationIlSt5ratioILl1ELl1000000000EEEElS2_ILl1ELl1000EEEENSt9enable_ifIXsrNS_13__is_durationIT_EE5valueES8_E4typeERKNS1_IT0_T1_EE
FNDA:6,_ZNSt6chrono4ceilINS_8durationIlSt5ratioILl1ELl1000000000EEEElS2_ILl1ELl1000EEEENSt9enable_ifIXsrNS_13__is_durationIT_EE5valueES8_E4typeERKNS1_IT0_T1_EE
FN:521,_ZNSt6chrono8durationIlSt5ratioILl1ELl1000000000EEEC2IivEERKT_
FNDA:0,_ZNSt6chrono8durationIlSt5ratioILl1ELl1000000000EEEC2IivEERKT_
FN:521,_ZNSt6chrono8durationIlSt5ratioILl1ELl1000EEEC2IlvEERKT_
FNDA:25,_ZNSt6chrono8durationIlSt5ratioILl1ELl1000EEEC2IlvEERKT_
FN:521,_ZNSt6chrono8durationIlSt5ratioILl1ELl1EEEC2IivEERKT_
FNDA:6,_ZNSt6chrono8durationIlSt5ratioILl1ELl1EEEC2IivEERKT_
FN:521,_ZNSt6chrono8durationIlSt5ratioILl1ELl1EEEC1IlvEERKT_
FNDA:15,_ZNSt6chrono8durationIlSt5ratioILl1ELl1EEEC1IlvEERKT_
FN:521,_ZNSt6chrono8durationIlSt5ratioILl1ELl1000000000EEEC1IlvEERKT_
FNDA:62,_ZNSt6chrono8durationIlSt5ratioILl1ELl1000000000EEEC1IlvEERKT_
FN:529,_ZNSt6chrono8durationIlSt5ratioILl1ELl1000000000EEEC2IlS1_ILl1ELl1EEvEERKNS0_IT_T0_EE
FNDA:5,_ZNSt6chrono8durationIlSt5ratioILl1ELl1000000000EEEC2IlS1_ILl1ELl1EEvEERKNS0_IT_T0_EE
FN:529,_ZNSt6chrono8durationIlSt5ratioILl1ELl1000000000EEEC1IlS1_ILl1ELl1000EEvEERKNS0_IT_T0_EE
FNDA:6,_ZNSt6chrono8durationIlSt5ratioILl1ELl1000000000EEEC1IlS1_ILl1ELl1000EEvEERKNS0_IT_T0_EE
FN:529,_ZNSt6chrono8durationIlSt5ratioILl1ELl1000EEEC2IlS1_ILl1ELl1EEvEERKNS0_IT_T0_EE
FNDA:6,_ZNSt6chrono8durationIlSt5ratioILl1ELl1000EEEC2IlS1_ILl1ELl1EEvEERKNS0_IT_T0_EE
FN:537,_ZNKSt6chrono8durationIlSt5ratioILl1ELl1000000000EEE5countEv
FNDA:127,_ZNKSt6chrono8durationIlSt5ratioILl1ELl1000000000EEE5countEv
FN:537,_ZNKSt6chrono8durationIlSt5ratioILl1ELl1EEE5countEv
FNDA:26,_ZNKSt6chrono8durationIlSt5ratioILl1ELl1EEE5countEv
FN:537,_ZNKSt6chrono8durationIlSt5ratioILl1ELl1000EEE5countEv
FNDA:37,_ZNKSt6chrono8durationIlSt5ratioILl1ELl1000EEE5countEv
FN:646,_ZNSt6chronoplIlSt5ratioILl1ELl1000000000EElS2_EENSt11common_typeIJNS_8durationIT_T0_EENS4_IT1_T2_EEEE4typeERKS7_RKSA_
FNDA:6,_ZNSt6chronoplIlSt5ratioILl1ELl1000000000EElS2_EENSt11common_typeIJNS_8durationIT_T0_EENS4_IT1_T2_EEEE4typeERKS7_RKSA_
FN:660,_ZNSt6chronomiIlSt5ratioILl1ELl1000000000EElS1_ILl1ELl1EEEENSt11common_typeIJNS_8durationIT_T0_EENS5_IT1_T2_EEEE4typeERKS8_RKSB_
FNDA:5,_ZNSt6chronomiIlSt5ratioILl1ELl1000000000EElS1_ILl1ELl1EEEENSt11common_typeIJNS_8durationIT_T0_EENS5_IT1_T2_EEEE4typeERKS8_RKSB_
FN:786,_ZNSt6chronossIlSt5ratioILl1ELl1000000000EElS1_ILl1ELl1000EEEEDaRKNS_8durationIT_T0_EERKNS4_IT1_T2_EE
FNDA:6,_ZNSt6chronossIlSt5ratioILl1ELl1000000000EElS1_ILl1ELl1000EEEEDaRKNS_8durationIT_T0_EERKNS4_IT1_T2_EE
FN:786,_ZNSt6chronossIlSt5ratioILl1ELl1000000000EElS2_EEDaRKNS_8durationIT_T0_EERKNS3_IT1_T2_EE
FNDA:5,_ZNSt6chronossIlSt5ratioILl1ELl1000000000EElS2_EEDaRKNS_8durationIT_T0_EERKNS3_IT1_T2_EE
FN:885,_ZNSt6chrono10time_pointINS_3_V212steady_clockENS_8durationIlSt5ratioILl1ELl1000000000EEEEEC2ERKS6_
FNDA:6,_ZNSt6chrono10time_pointINS_3_V212steady_clockENS_8durationIlSt5ratioILl1ELl1000000000EEEEEC2ERKS6_
FN:885,_ZNSt6chrono10time_pointINS_3_V212steady_clockENS_8durationIlSt5ratioILl1ELl1EEEEEC2ERKS6_
FNDA:5,_ZNSt6chrono10time_pointINS_3_V212steady_clockENS_8durationIlSt5ratioILl1ELl1EEEEEC2ERKS6_
FN:898,_ZNKSt6chrono10time_pointINS_3_V212steady_clockENS_8durationIlSt5ratioILl1ELl1000000000EEEEE16time_since_epochEv
FNDA:44,_ZNKSt6chrono10time_pointINS_3_V212steady_clockENS_8durationIlSt5ratioILl1ELl1000000000EEEEE16time_since_epochEv
FN:898,_ZNKSt6chrono10time_pointINS_3_V212steady_clockENS_8durationIlSt5ratioILl1ELl1EEEEE16time_since_epochEv
FNDA:10,_ZNKSt6chrono10time_pointINS_3_V212steady_clockENS_8durationIlSt5ratioILl1ELl1EEEEE16time_since_epochEv
FN:957,_ZNSt6chrono15time_point_castINS_8durationIlSt5ratioILl1ELl1EEEENS_3_V212steady_clockENS1_IlS2_ILl1ELl1000000000EEEEEENSt9enable_ifIXsrNS_13__is_durationIT_EE5valueENS_10time_pointIT0_SB_EEE4typeERKNSD_ISE_T1_EE
FNDA:5,_ZNSt6chrono15time_point_castINS_8durationIlSt5ratioILl1ELl1EEEENS_3_V212steady_clockENS1_IlS2_ILl1ELl1000000000EEEEEENSt9enable_ifIXsrNS_13__is_durationIT_EE5valueENS_10time_pointIT0_SB_EEE4typeERKNSD_ISE_T1_EE
FN:1002,_ZNSt6chronoplINS_3_V212steady_clockENS_8durationIlSt5ratioILl1ELl1000000000EEEElS5_EENS_10time_pointIT_NSt11common_typeIJT0_NS3_IT1_T2_EEEE4typeEEERKNS7_IS8_SA_EERKSD_
FNDA:6,_ZNSt6chronoplINS_3_V212steady_clockENS_8durationIlSt5ratioILl1ELl1000000000EEEElS5_EENS_10time_pointIT_NSt11common_typeIJT0_NS3_IT1_T2_EEEE4typeEEERKNS7_IS8_SA_EERKSD_
FN:1042,_ZNSt6chronomiINS_3_V212steady_clockENS_8durationIlSt5ratioILl1ELl1000000000EEEENS3_IlS4_ILl1ELl1EEEEEENSt11common_typeIJT0_T1_EE4typeERKNS_10time_pointIT_SA_EERKNSE_ISF_SB_EE
FNDA:5,_ZNSt6chronomiINS_3_V212steady_clockENS_8durationIlSt5ratioILl1ELl1000000000EEEENS3_IlS4_ILl1ELl1EEEEEENSt11common_typeIJT0_T1_EE4typeERKNS_10time_pointIT_SA_EERKNSE_ISF_SB_EE
FN:1062,_ZNSt6chronossINS_3_V212steady_clockENS_8durationIlSt5ratioILl1ELl1000000000EEEES6_EEDaRKNS_10time_pointIT_T0_EERKNS7_IS8_T1_EE
FNDA:5,_ZNSt6chronossINS_3_V212steady_clockENS_8durationIlSt5ratioILl1ELl1000000000EEEES6_EEDaRKNS_10time_pointIT_T0_EERKNS7_IS8_T1_EE
DA:211,5
DA:214,5
DA:223,5
DA:226,10
DA:227,5
DA:236,6
DA:239,12
DA:240,6
DA:236,15
DA:239,30
DA:240,15
DA:236,12
DA:239,24
DA:240,12
DA:267,6
DA:276,6
DA:267,15
DA:276,15
DA:267,12
DA:276,12
DA:267,5
DA:276,5
DA:267,5
DA:276,5
DA:360,6
DA:362,6
DA:363,6
DA:364,0
DA:365,6
DA:521,0
DA:522,0
DA:521,25
DA:522,25
DA:521,6
DA:522,6
DA:521,15
DA:522,15
DA:521,62
DA:522,62
DA:529,5
DA:530,5
DA:529,6
DA:530,6
DA:529,6
DA:530,6
DA:537,37
DA:538,37
DA:537,26
DA:538,26
DA:537,127
DA:538,127
DA:646,6
DA:652,6
DA:660,5
DA:666,5
DA:786,6
DA:791,12
DA:786,5
DA:791,10
DA:885,5
DA:886,5
DA:887,5
DA:885,6
DA:886,6
DA:887,6
DA:898,10
DA:899,10
DA:898,44
DA:899,44
DA:957,5
DA:960,5
DA:1002,6
DA:1008,6
DA:1042,5
DA:1044,10
DA:1062,5
DA:1064,10
end_of_record
SF:/usr/include/c++/11/bits/unique_ptr.h
FN:79,_ZNKSt14default_deleteINSt6thread6_StateEEclEPS1_
FNDA:0,_ZNKSt14default_deleteINSt6thread6_StateEEclEPS1_
FN:79,_ZNKSt14default_deleteINSt7__cxx1112basic_stringIcSt11char_traitsIcESaIcEEEEclEPS5_
FNDA:0,_ZNKSt14default_deleteINSt7__cxx1112basic_stringIcSt11char_traitsIcESaIcEEEEclEPS5_
FN:79,_ZNKSt14default_deleteINSt7__cxx1118basic_stringstreamIcSt11char_traitsIcESaIcEEEEclEPS5_
FNDA:59,_ZNKSt14default_deleteINSt7__cxx1118basic_stringstreamIcSt11char_traitsIcESaIcEEEEclEPS5_
FN:155,_ZNSt15__uniq_ptr_implINSt6thread6_StateESt14default_deleteIS1_EEC2EPS1_
FNDA:8,_ZNSt15__uniq_ptr_implINSt6thread6_StateESt14default_deleteIS1_EEC2EPS1_
FN:172,_ZNSt15__uniq_ptr_implINSt6thread6_StateESt14default_deleteIS1_EE6_M_ptrEv
FNDA:16,_ZNSt15__uniq_ptr_implINSt6thread6_StateESt14default_deleteIS1_EE6_M_ptrEv
FN:172,_ZNSt15__uniq_ptr_implINSt7__cxx1118basic_stringstreamIcSt11char_traitsIcESaIcEEESt14default_deleteIS5_EE6_M_ptrEv
FNDA:118,_ZNSt15__uniq_ptr_implINSt7__cxx1118basic_stringstreamIcSt11char_traitsIcESaIcEEESt14default_deleteIS5_EE6_M_ptrEv
FN:172,_ZNSt15__uniq_ptr_implINSt7__cxx1112basic_stringIcSt11char_traitsIcESaIcEEESt14default_deleteIS5_EE6_M_ptrEv
FNDA:7,_ZNSt15__uniq_ptr_implINSt7__cxx1112basic_stringIcSt11char_traitsIcESaIcEEESt14default_deleteIS5_EE6_M_ptrEv
FN:173,_ZNKSt15__uniq_ptr_implINSt7__cxx1112basic_stringIcSt11char_traitsIcESaIcEEESt14default_deleteIS5_EE6_M_ptrEv
FNDA:0,_ZNKSt15__uniq_ptr_implINSt7__cxx1112basic_stringIcSt11char_traitsIcESaIcEEESt14default_deleteIS5_EE6_M_ptrEv
FN:174,_ZNSt15__uniq_ptr_implINSt6thread6_StateESt14default_deleteIS1_EE10_M_deleterEv
FNDA:0,_ZNSt15__uniq_ptr_implINSt6thread6_StateESt14default_deleteIS1_EE10_M_deleterEv
FN:174,_ZNSt15__uniq_ptr_implINSt7__cxx1118basic_stringstreamIcSt11char_traitsIcESaIcEEESt14default_deleteIS5_EE10_M_deleterEv
FNDA:59,_ZNSt15__uniq_ptr_implINSt7__cxx1118basic_stringstreamIcSt11char_traitsIcESaIcEEESt14default_deleteIS5_EE10_M_deleterEv
FN:174,_ZNSt15__uniq_ptr_implINSt7__cxx1112basic_stringIcSt11char_traitsIcESaIcEEESt14default_deleteIS5_EE10_M_deleterEv
FNDA:0,_ZNSt15__uniq_ptr_implINSt7__cxx1112basic_stringIcSt11char_traitsIcESaIcEEESt14default_deleteIS5_EE10_M_deleterEv
FN:281,_ZNSt10unique_ptrINSt6thread6_StateESt14default_deleteIS1_EEC2IS3_vEEPS1_
FNDA:8,_ZNSt10unique_ptrINSt6thread6_StateESt14default_deleteIS1_EEC2IS3_vEEPS1_
FN:355,_ZNSt10unique_ptrINSt7__cxx1118basic_stringstreamIcSt11char_traitsIcESaIcEEESt14default_deleteIS5_EED2Ev
FNDA:59,_ZNSt10unique_ptrINSt7__cxx1118basic_stringstreamIcSt11char_traitsIcESaIcEEESt14default_deleteIS5_EED2Ev
FN:355,_ZNSt10unique_ptrINSt7__cxx1112basic_stringIcSt11char_traitsIcESaIcEEESt14default_deleteIS5_EED2Ev
FNDA:7,_ZNSt10unique_ptrINSt7__cxx1112basic_stringIcSt11char_traitsIcESaIcEEESt14default_deleteIS5_EED2Ev
FN:355,_ZNSt10unique_ptrINSt6thread6_StateESt14default_deleteIS1_EED2Ev
FNDA:8,_ZNSt10unique_ptrINSt6thread6_StateESt14default_deleteIS1_EED2Ev
FN:413,_ZNKSt10unique_ptrINSt7__cxx1112basic_stringIcSt11char_traitsIcESaIcEEESt14default_deleteIS5_EEptEv
FNDA:0,_ZNKSt10unique_ptrINSt7__cxx1112basic_stringIcSt11char_traitsIcESaIcEEESt14default_deleteIS5_EEptEv
FN:421,_ZNKSt10unique_ptrINSt7__cxx1112basic_stringIcSt11char_traitsIcESaIcEEESt14default_deleteIS5_EE3getEv
FNDA:0,_ZNKSt10unique_ptrINSt7__cxx1112basic_stringIcSt11char_traitsIcESaIcEEESt14default_deleteIS5_EE3getEv
FN:426,_ZNSt10unique_ptrINSt7__cxx1118basic_stringstreamIcSt11char_traitsIcESaIcEEESt14default_deleteIS5_EE11get_deleterEv
FNDA:59,_ZNSt10unique_ptrINSt7__cxx1118basic_stringstreamIcSt11char_traitsIcESaIcEEESt14default_deleteIS5_EE11get_deleterEv
FN:426,_ZNSt10unique_ptrINSt7__cxx1112basic_stringIcSt11char_traitsIcESaIcEEESt14default_deleteIS5_EE11get_deleterEv
FNDA:0,_ZNSt10unique_ptrINSt7__cxx1112basic_stringIcSt11char_traitsIcESaIcEEESt14default_deleteIS5_EE11get_deleterEv
FN:426,_ZNSt10unique_ptrINSt6thread6_StateESt14default_deleteIS1_EE11get_deleterEv
FNDA:0,_ZNSt10unique_ptrINSt6thread6_StateESt14default_deleteIS1_EE11get_deleterEv
FN:435,_ZNKSt10unique_ptrINSt7__cxx1112basic_stringIcSt11char_traitsIcESaIcEEESt14default_deleteIS5_EEcvbEv
FNDA:0,_ZNKSt10unique_ptrINSt7__cxx1112basic_stringIcSt11char_traitsIcESaIcEEESt14default_deleteIS5_EEcvbEv
FN:760,_ZSteqINSt7__cxx1112basic_stringIcSt11char_traitsIcESaIcEEESt14default_deleteIS5_EEbRKSt10unique_ptrIT_T0_EDn
FNDA:0,_ZSteqINSt7__cxx1112basic_stringIcSt11char_traitsIcESaIcEEESt14default_deleteIS5_EEbRKSt10unique_ptrIT_T0_EDn
DA:79,0
DA:85,0
DA:86,0
DA:79,0
DA:85,0
DA:86,0
DA:79,59
DA:85,59
DA:86,59
DA:155,8
DA:172,16
DA:172,7
DA:172,118
DA:173,0
DA:174,0
DA:174,59
DA:174,0
DA:281,8
DA:282,8
DA:283,8
DA:355,8
DA:359,8
DA:360,8
DA:361,0
DA:362,8
DA:363,8
DA:355,7
DA:359,7
DA:360,7
DA:361,0
DA:362,7
DA:363,7
DA:355,59
DA:359,59
DA:360,59
DA:361,59
DA:362,59
DA:363,59
DA:413,0
DA:416,0
DA:421,0
DA:422,0
DA:426,0
DA:427,0
DA:426,0
DA:427,0
DA:426,59
DA:427,59
DA:435,0
DA:436,0
DA:760,0
DA:761,0
end_of_record
SF:/usr/include/x86_64-linux-gnu/c++/11/bits/gthr-default.h
FN:300,_ZL18__gthread_active_pv
FNDA:16,_ZL18__gthread_active_pv
FN:746,_ZL20__gthread_mutex_lockP15pthread_mutex_t
FNDA:8,_ZL20__gthread_mutex_lockP15pthread_mutex_t
FN:776,_ZL22__gthread_mutex_unlockP15pthread_mutex_t
FNDA:8,_ZL22__gthread_mutex_unlockP15pthread_mutex_t
DA:300,16
DA:302,16
DA:746,8
DA:748,8
DA:749,8
DA:751,0
DA:776,8
DA:778,8
DA:779,8
DA:781,0
end_of_record
SF:/usr/include/c++/11/new
FN:174,_ZnwmPv
FNDA:37,_ZnwmPv
DA:174,37
DA:175,37
end_of_record
SF:/usr/include/c++/11/iostream
end_of_record
SF:/usr/include/c++/11/bits/cpp_type_traits.h
FN:560,_ZSt12__miter_baseIPKcET_S2_
FNDA:0,_ZSt12__miter_baseIPKcET_S2_
DA:560,0
DA:561,0
end_of_record
SF:/usr/include/c++/11/tuple
FN:80,_ZNSt10_Head_baseILm1ESt14default_deleteINSt6thread6_StateEELb1EEC2Ev
FNDA:8,_ZNSt10_Head_baseILm1ESt14default_deleteINSt6thread6_StateEELb1EEC2Ev
FN:124,_ZNSt10_Head_baseILm1ESt14default_deleteINSt6thread6_StateEELb1EE7_M_headERS4_
FNDA:0,_ZNSt10_Head_baseILm1ESt14default_deleteINSt6thread6_StateEELb1EE7_M_headERS4_
FN:124,_ZNSt10_Head_baseILm1ESt14default_deleteINSt7__cxx1118basic_stringstreamIcSt11char_traitsIcESaIcEEEELb1EE7_M_headERS8_
FNDA:59,_ZNSt10_Head_baseILm1ESt14default_deleteINSt7__cxx1118basic_stringstreamIcSt11char_traitsIcESaIcEEEELb1EE7_M_headERS8_
FN:124,_ZNSt10_Head_baseILm1ESt14default_deleteINSt7__cxx1112basic_stringIcSt11char_traitsIcESaIcEEEELb1EE7_M_headERS8_
FNDA:0,_ZNSt10_Head_baseILm1ESt14default_deleteINSt7__cxx1112basic_stringIcSt11char_traitsIcESaIcEEEELb1EE7_M_headERS8_
FN:189,_ZNSt10_Head_baseILm0EPNSt6thread6_StateELb0EEC2Ev
FNDA:8,_ZNSt10_Head_baseILm0EPNSt6thread6_StateELb0EEC2Ev
FN:199,_ZNSt10_Head_baseILm0EZN33EventFlagTest_WaitMultiple_2_Test8TestBodyEvEUlvE0_Lb0EEC2IS1_EEOT_
FNDA:1,_ZNSt10_Head_baseILm0EZN33EventFlagTest_WaitMultiple_2_Test8TestBodyEvEUlvE0_Lb0EEC2IS1_EEOT_
FN:199,_ZNSt10_Head_baseILm0EZN33EventFlagTest_WaitMultiple_2_Test8TestBodyEvEUlvE_Lb0EEC2IS1_EEOT_
FNDA:1,_ZNSt10_Head_baseILm0EZN33EventFlagTest_WaitMultiple_2_Test8TestBodyEvEUlvE_Lb0EEC2IS1_EEOT_
FN:199,_ZNSt10_Head_baseILm0EZN22EventFlagTest_And_Test8TestBodyEvEUlvE_Lb0EEC2IS1_EEOT_
FNDA:1,_ZNSt10_Head_baseILm0EZN22EventFlagTest_And_Test8TestBodyEvEUlvE_Lb0EEC2IS1_EEOT_
FN:199,_ZNSt10_Head_baseILm0ESt8functionIFvvEELb0EEC2IRS2_EEOT_
FNDA:2,_ZNSt10_Head_baseILm0ESt8functionIFvvEELb0EEC2IRS2_EEOT_
FN:199,_ZNSt10_Head_baseILm0EZN30EventFlagTest_TimedOut_Or_Test8TestBodyEvEUlvE_Lb0EEC2IS1_EEOT_
FNDA:1,_ZNSt10_Head_baseILm0EZN30EventFlagTest_TimedOut_Or_Test8TestBodyEvEUlvE_Lb0EEC2IS1_EEOT_
FN:199,_ZNSt10_Head_baseILm0EZN21EventFlagTest_Or_Test8TestBodyEvEUlvE_Lb0EEC2IS1_EEOT_
FNDA:1,_ZNSt10_Head_baseILm0EZN21EventFlagTest_Or_Test8TestBodyEvEUlvE_Lb0EEC2IS1_EEOT_
FN:199,_ZNSt10_Head_baseILm0EZN31EventFlagTest_TimedOut_And_Test8TestBodyEvEUlvE_Lb0EEC2IS1_EEOT_
FNDA:1,_ZNSt10_Head_baseILm0EZN31EventFlagTest_TimedOut_And_Test8TestBodyEvEUlvE_Lb0EEC2IS1_EEOT_
FN:233,_ZNSt10_Head_baseILm0EZN21EventFlagTest_Or_Test8TestBodyEvEUlvE_Lb0EE7_M_headERS2_
FNDA:1,_ZNSt10_Head_baseILm0EZN21EventFlagTest_Or_Test8TestBodyEvEUlvE_Lb0EE7_M_headERS2_
FN:233,_ZNSt10_Head_baseILm0EZN33EventFlagTest_WaitMultiple_2_Test8TestBodyEvEUlvE_Lb0EE7_M_headERS2_
FNDA:1,_ZNSt10_Head_baseILm0EZN33EventFlagTest_WaitMultiple_2_Test8TestBodyEvEUlvE_Lb0EE7_M_headERS2_
FN:233,_ZNSt10_Head_baseILm0EPNSt6thread6_StateELb0EE7_M_headERS3_
FNDA:16,_ZNSt10_Head_baseILm0EPNSt6thread6_StateELb0EE7_M_headERS3_
FN:233,_ZNSt10_Head_baseILm0EZN31EventFlagTest_TimedOut_And_Test8TestBodyEvEUlvE_Lb0EE7_M_headERS2_
FNDA:1,_ZNSt10_Head_baseILm0EZN31EventFlagTest_TimedOut_And_Test8TestBodyEvEUlvE_Lb0EE7_M_headERS2_
FN:233,_ZNSt10_Head_baseILm0EZN30EventFlagTest_TimedOut_Or_Test8TestBodyEvEUlvE_Lb0EE7_M_headERS2_
FNDA:1,_ZNSt10_Head_baseILm0EZN30EventFlagTest_TimedOut_Or_Test8TestBodyEvEUlvE_Lb0EE7_M_headERS2_
FN:233,_ZNSt10_Head_baseILm0EZN22EventFlagTest_And_Test8TestBodyEvEUlvE_Lb0EE7_M_headERS2_
FNDA:1,_ZNSt10_Head_baseILm0EZN22EventFlagTest_And_Test8TestBodyEvEUlvE_Lb0EE7_M_headERS2_
FN:233,_ZNSt10_Head_baseILm0ESt8functionIFvvEELb0EE7_M_headERS3_
FNDA:2,_ZNSt10_Head_baseILm0ESt8functionIFvvEELb0EE7_M_headERS3_
FN:233,_ZNSt10_Head_baseILm0EPNSt7__cxx1112basic_stringIcSt11char_traitsIcESaIcEEELb0EE7_M_headERS7_
FNDA:7,_ZNSt10_Head_baseILm0EPNSt7__cxx1112basic_stringIcSt11char_traitsIcESaIcEEELb0EE7_M_headERS7_
FN:233,_ZNSt10_Head_baseILm0EPNSt7__cxx1118basic_stringstreamIcSt11char_traitsIcESaIcEEELb0EE7_M_headERS7_
FNDA:118,_ZNSt10_Head_baseILm0EPNSt7__cxx1118basic_stringstreamIcSt11char_traitsIcESaIcEEELb0EE7_M_headERS7_
FN:233,_ZNSt10_Head_baseILm0EZN33EventFlagTest_WaitMultiple_2_Test8TestBodyEvEUlvE0_Lb0EE7_M_headERS2_
FNDA:1,_ZNSt10_Head_baseILm0EZN33EventFlagTest_WaitMultiple_2_Test8TestBodyEvEUlvE0_Lb0EE7_M_headERS2_
FN:236,_ZNSt10_Head_baseILm0EPNSt7__cxx1112basic_stringIcSt11char_traitsIcESaIcEEELb0EE7_M_headERKS7_
FNDA:0,_ZNSt10_Head_baseILm0EPNSt7__cxx1112basic_stringIcSt11char_traitsIcESaIcEEELb0EE7_M_headERKS7_
FN:268,_ZNSt11_Tuple_implILm0EJPNSt6thread6_StateESt14default_deleteIS1_EEE7_M_headERS5_
FNDA:16,_ZNSt11_Tuple_implILm0EJPNSt6thread6_StateESt14default_deleteIS1_EEE7_M_headERS5_
FN:268,_ZNSt11_Tuple_implILm0EJPNSt7__cxx1112basic_stringIcSt11char_traitsIcESaIcEEESt14default_deleteIS5_EEE7_M_headERS9_
FNDA:7,_ZNSt11_Tuple_implILm0EJPNSt7__cxx1112basic_stringIcSt11char_traitsIcESaIcEEESt14default_deleteIS5_EEE7_M_headERS9_
FN:268,_ZNSt11_Tuple_implILm0EJPNSt7__cxx1118basic_stringstreamIcSt11char_traitsIcESaIcEEESt14default_deleteIS5_EEE7_M_headERS9_
FNDA:118,_ZNSt11_Tuple_implILm0EJPNSt7__cxx1118basic_stringstreamIcSt11char_traitsIcESaIcEEESt14default_deleteIS5_EEE7_M_headERS9_
FN:271,_ZNSt11_Tuple_implILm0EJPNSt7__cxx1112basic_stringIcSt11char_traitsIcESaIcEEESt14default_deleteIS5_EEE7_M_headERKS9_
FNDA:0,_ZNSt11_Tuple_implILm0EJPNSt7__cxx1112basic_stringIcSt11char_traitsIcESaIcEEESt14default_deleteIS5_EEE7_M_headERKS9_
FN:279,_ZNSt11_Tuple_implILm0EJPNSt6thread6_StateESt14default_deleteIS1_EEEC2Ev
FNDA:8,_ZNSt11_Tuple_implILm0EJPNSt6thread6_StateESt14default_deleteIS1_EEEC2Ev
FN:424,_ZNSt11_Tuple_implILm0EJZN33EventFlagTest_WaitMultiple_2_Test8TestBodyEvEUlvE0_EE7_M_headERS2_
FNDA:1,_ZNSt11_Tuple_implILm0EJZN33EventFlagTest_WaitMultiple_2_Test8TestBodyEvEUlvE0_EE7_M_headERS2_
FN:424,_ZNSt11_Tuple_implILm0EJZN33EventFlagTest_WaitMultiple_2_Test8TestBodyEvEUlvE_EE7_M_headERS2_
FNDA:1,_ZNSt11_Tuple_implILm0EJZN33EventFlagTest_WaitMultiple_2_Test8TestBodyEvEUlvE_EE7_M_headERS2_
FN:424,_ZNSt11_Tuple_implILm1EJSt14default_deleteINSt6thread6_StateEEEE7_M_headERS4_
FNDA:0,_ZNSt11_Tuple_implILm1EJSt14default_deleteINSt6thread6_StateEEEE7_M_headERS4_
FN:424,_ZNSt11_Tuple_implILm0EJSt8functionIFvvEEEE7_M_headERS3_
FNDA:2,_ZNSt11_Tuple_implILm0EJSt8functionIFvvEEEE7_M_headERS3_
FN:424,_ZNSt11_Tuple_implILm0EJZN30EventFlagTest_TimedOut_Or_Test8TestBodyEvEUlvE_EE7_M_headERS2_
FNDA:1,_ZNSt11_Tuple_implILm0EJZN30EventFlagTest_TimedOut_Or_Test8TestBodyEvEUlvE_EE7_M_headERS2_
FN:424,_ZNSt11_Tuple_implILm0EJZN31EventFlagTest_TimedOut_And_Test8TestBodyEvEUlvE_EE7_M_headERS2_
FNDA:1,_ZNSt11_Tuple_implILm0EJZN31EventFlagTest_TimedOut_And_Test8TestBodyEvEUlvE_EE7_M_headERS2_
FN:424,_ZNSt11_Tuple_implILm1EJSt14default_deleteINSt7__cxx1118basic_stringstreamIcSt11char_traitsIcESaIcEEEEEE7_M_headERS8_
FNDA:59,_ZNSt11_Tuple_implILm1EJSt14default_deleteINSt7__cxx1118basic_stringstreamIcSt11char_traitsIcESaIcEEEEEE7_M_headERS8_
FN:424,_ZNSt11_Tuple_implILm0EJZN22EventFlagTest_And_Test8TestBodyEvEUlvE_EE7_M_headERS2_
FNDA:1,_ZNSt11_Tuple_implILm0EJZN22EventFlagTest_And_Test8TestBodyEvEUlvE_EE7_M_headERS2_
FN:424,_ZNSt11_Tuple_implILm0EJZN21EventFlagTest_Or_Test8TestBodyEvEUlvE_EE7_M_headERS2_
FNDA:1,_ZNSt11_Tuple_implILm0EJZN21EventFlagTest_Or_Test8TestBodyEvEUlvE_EE7_M_headERS2_
FN:424,_ZNSt11_Tuple_implILm1EJSt14default_deleteINSt7__cxx1112basic_stringIcSt11char_traitsIcESaIcEEEEEE7_M_headERS8_
FNDA:0,_ZNSt11_Tuple_implILm1EJSt14default_deleteINSt7__cxx1112basic_stringIcSt11char_traitsIcESaIcEEEEEE7_M_headERS8_
FN:430,_ZNSt11_Tuple_implILm1EJSt14default_deleteINSt6thread6_StateEEEEC2Ev
FNDA:8,_ZNSt11_Tuple_implILm1EJSt14default_deleteINSt6thread6_StateEEEEC2Ev
FN:440,_ZNSt11_Tuple_implILm0EJZN33EventFlagTest_WaitMultiple_2_Test8TestBodyEvEUlvE0_EEC2IS1_EEOT_
FNDA:1,_ZNSt11_Tuple_implILm0EJZN33EventFlagTest_WaitMultiple_2_Test8TestBodyEvEUlvE0_EEC2IS1_EEOT_
FN:440,_ZNSt11_Tuple_implILm0EJZN33EventFlagTest_WaitMultiple_2_Test8TestBodyEvEUlvE_EEC2IS1_EEOT_
FNDA:1,_ZNSt11_Tuple_implILm0EJZN33EventFlagTest_WaitMultiple_2_Test8TestBodyEvEUlvE_EEC2IS1_EEOT_
FN:440,_ZNSt11_Tuple_implILm0EJSt8functionIFvvEEEEC2IRS2_EEOT_
FNDA:2,_ZNSt11_Tuple_implILm0EJSt8functionIFvvEEEEC2IRS2_EEOT_
FN:440,_ZNSt11_Tuple_implILm0EJZN30EventFlagTest_TimedOut_Or_Test8TestBodyEvEUlvE_EEC2IS1_EEOT_
FNDA:1,_ZNSt11_Tuple_implILm0EJZN30EventFlagTest_TimedOut_Or_Test8TestBodyEvEUlvE_EEC2IS1_EEOT_
FN:440,_ZNSt11_Tuple_implILm0EJZN21EventFlagTest_Or_Test8TestBodyEvEUlvE_EEC2IS1_EEOT_
FNDA:1,_ZNSt11_Tuple_implILm0EJZN21EventFlagTest_Or_Test8TestBodyEvEUlvE_EEC2IS1_EEOT_
FN:440,_ZNSt11_Tuple_implILm0EJZN31EventFlagTest_TimedOut_And_Test8TestBodyEvEUlvE_EEC2IS1_EEOT_
FNDA:1,_ZNSt11_Tuple_implILm0EJZN31EventFlagTest_TimedOut_And_Test8TestBodyEvEUlvE_EEC2IS1_EEOT_
FN:440,_ZNSt11_Tuple_implILm0EJZN22EventFlagTest_And_Test8TestBodyEvEUlvE_EEC2IS1_EEOT_
FNDA:1,_ZNSt11_Tuple_implILm0EJZN22EventFlagTest_And_Test8TestBodyEvEUlvE_EEC2IS1_EEOT_
FN:742,_ZNSt5tupleIJZN22EventFlagTest_And_Test8TestBodyEvEUlvE_EEC2IJS1_ELb1ELb1EEEDpOT_
FNDA:1,_ZNSt5tupleIJZN22EventFlagTest_And_Test8TestBodyEvEUlvE_EEC2IJS1_ELb1ELb1EEEDpOT_
FN:742,_ZNSt5tupleIJZN33EventFlagTest_WaitMultiple_2_Test8TestBodyEvEUlvE0_EEC2IJS1_ELb1ELb1EEEDpOT_
FNDA:1,_ZNSt5tupleIJZN33EventFlagTest_WaitMultiple_2_Test8TestBodyEvEUlvE0_EEC2IJS1_ELb1ELb1EEEDpOT_
FN:742,_ZNSt5tupleIJZN33EventFlagTest_WaitMultiple_2_Test8TestBodyEvEUlvE_EEC2IJS1_ELb1ELb1EEEDpOT_
FNDA:1,_ZNSt5tupleIJZN33EventFlagTest_WaitMultiple_2_Test8TestBodyEvEUlvE_EEC2IJS1_ELb1ELb1EEEDpOT_
FN:742,_ZNSt5tupleIJSt8functionIFvvEEEEC2IJRS2_ELb1ELb1EEEDpOT_
FNDA:2,_ZNSt5tupleIJSt8functionIFvvEEEEC2IJRS2_ELb1ELb1EEEDpOT_
FN:742,_ZNSt5tupleIJZN30EventFlagTest_TimedOut_Or_Test8TestBodyEvEUlvE_EEC2IJS1_ELb1ELb1EEEDpOT_
FNDA:1,_ZNSt5tupleIJZN30EventFlagTest_TimedOut_Or_Test8TestBodyEvEUlvE_EEC2IJS1_ELb1ELb1EEEDpOT_
FN:742,_ZNSt5tupleIJZN31EventFlagTest_TimedOut_And_Test8TestBodyEvEUlvE_EEC2IJS1_ELb1ELb1EEEDpOT_
FNDA:1,_ZNSt5tupleIJZN31EventFlagTest_TimedOut_And_Test8TestBodyEvEUlvE_EEC2IJS1_ELb1ELb1EEEDpOT_
FN:742,_ZNSt5tupleIJZN21EventFlagTest_Or_Test8TestBodyEvEUlvE_EEC2IJS1_ELb1ELb1EEEDpOT_
FNDA:1,_ZNSt5tupleIJZN21EventFlagTest_Or_Test8TestBodyEvEUlvE_EEC2IJS1_ELb1ELb1EEEDpOT_
FN:1049,_ZNSt5tupleIJPNSt6thread6_StateESt14default_deleteIS1_EEEC2ILb1ELb1EEEv
FNDA:8,_ZNSt5tupleIJPNSt6thread6_StateESt14default_deleteIS1_EEEC2ILb1ELb1EEEv
FN:1377,_ZSt12__get_helperILm1ESt14default_deleteINSt6thread6_StateEEJEERT0_RSt11_Tuple_implIXT_EJS4_DpT1_EE
FNDA:0,_ZSt12__get_helperILm1ESt14default_deleteINSt6thread6_StateEEJEERT0_RSt11_Tuple_implIXT_EJS4_DpT1_EE
FN:1377,_ZSt12__get_helperILm0EPNSt7__cxx1118basic_stringstreamIcSt11char_traitsIcESaIcEEEJSt14default_deleteIS5_EEERT0_RSt11_Tuple_implIXT_EJS9_DpT1_EE
FNDA:118,_ZSt12__get_helperILm0EPNSt7__cxx1118basic_stringstreamIcSt11char_traitsIcESaIcEEEJSt14default_deleteIS5_EEERT0_RSt11_Tuple_implIXT_EJS9_DpT1_EE
FN:1377,_ZSt12__get_helperILm0EPNSt7__cxx1112basic_stringIcSt11char_traitsIcESaIcEEEJSt14default_deleteIS5_EEERT0_RSt11_Tuple_implIXT_EJS9_DpT1_EE
FNDA:7,_ZSt12__get_helperILm0EPNSt7__cxx1112basic_stringIcSt11char_traitsIcESaIcEEEJSt14default_deleteIS5_EEERT0_RSt11_Tuple_implIXT_EJS9_DpT1_EE
FN:1377,_ZSt12__get_helperILm1ESt14default_deleteINSt7__cxx1112basic_stringIcSt11char_traitsIcESaIcEEEEJEERT0_RSt11_Tuple_implIXT_EJS8_DpT1_EE
FNDA:0,_ZSt12__get_helperILm1ESt14default_deleteINSt7__cxx1112basic_stringIcSt11char_traitsIcESaIcEEEEJEERT0_RSt11_Tuple_implIXT_EJS8_DpT1_EE
FN:1377,_ZSt12__get_helperILm0EZN33EventFlagTest_WaitMultiple_2_Test8TestBodyEvEUlvE0_JEERT0_RSt11_Tuple_implIXT_EJS2_DpT1_EE
FNDA:1,_ZSt12__get_helperILm0EZN33EventFlagTest_WaitMultiple_2_Test8TestBodyEvEUlvE0_JEERT0_RSt11_Tuple_implIXT_EJS2_DpT1_EE
FN:1377,_ZSt12__get_helperILm1ESt14default_deleteINSt7__cxx1118basic_stringstreamIcSt11char_traitsIcESaIcEEEEJEERT0_RSt11_Tuple_implIXT_EJS8_DpT1_EE
FNDA:59,_ZSt12__get_helperILm1ESt14default_deleteINSt7__cxx1118basic_stringstreamIcSt11char_traitsIcESaIcEEEEJEERT0_RSt11_Tuple_implIXT_EJS8_DpT1_EE
FN:1377,_ZSt12__get_helperILm0EZN33EventFlagTest_WaitMultiple_2_Test8TestBodyEvEUlvE_JEERT0_RSt11_Tuple_implIXT_EJS2_DpT1_EE
FNDA:1,_ZSt12__get_helperILm0EZN33EventFlagTest_WaitMultiple_2_Test8TestBodyEvEUlvE_JEERT0_RSt11_Tuple_implIXT_EJS2_DpT1_EE
FN:1377,_ZSt12__get_helperILm0ESt8functionIFvvEEJEERT0_RSt11_Tuple_implIXT_EJS3_DpT1_EE
FNDA:2,_ZSt12__get_helperILm0ESt8functionIFvvEEJEERT0_RSt11_Tuple_implIXT_EJS3_DpT1_EE
FN:1377,_ZSt12__get_helperILm0EZN30EventFlagTest_TimedOut_Or_Test8TestBodyEvEUlvE_JEERT0_RSt11_Tuple_implIXT_EJS2_DpT1_EE
FNDA:1,_ZSt12__get_helperILm0EZN30EventFlagTest_TimedOut_Or_Test8TestBodyEvEUlvE_JEERT0_RSt11_Tuple_implIXT_EJS2_DpT1_EE
FN:1377,_ZSt12__get_helperILm0EZN31EventFlagTest_TimedOut_And_Test8TestBodyEvEUlvE_JEERT0_RSt11_Tuple_implIXT_EJS2_DpT1_EE
FNDA:1,_ZSt12__get_helperILm0EZN31EventFlagTest_TimedOut_And_Test8TestBodyEvEUlvE_JEERT0_RSt11_Tuple_implIXT_EJS2_DpT1_EE
FN:1377,_ZSt12__get_helperILm0EPNSt6thread6_StateEJSt14default_deleteIS1_EEERT0_RSt11_Tuple_implIXT_EJS5_DpT1_EE
FNDA:16,_ZSt12__get_helperILm0EPNSt6thread6_StateEJSt14default_deleteIS1_EEERT0_RSt11_Tuple_implIXT_EJS5_DpT1_EE
FN:1377,_ZSt12__get_helperILm0EZN21EventFlagTest_Or_Test8TestBodyEvEUlvE_JEERT0_RSt11_Tuple_implIXT_EJS2_DpT1_EE
FNDA:1,_ZSt12__get_helperILm0EZN21EventFlagTest_Or_Test8TestBodyEvEUlvE_JEERT0_RSt11_Tuple_implIXT_EJS2_DpT1_EE
FN:1377,_ZSt12__get_helperILm0EZN22EventFlagTest_And_Test8TestBodyEvEUlvE_JEERT0_RSt11_Tuple_implIXT_EJS2_DpT1_EE
FNDA:1,_ZSt12__get_helperILm0EZN22EventFlagTest_And_Test8TestBodyEvEUlvE_JEERT0_RSt11_Tuple_implIXT_EJS2_DpT1_EE
FN:1382,_ZSt12__get_helperILm0EPNSt7__cxx1112basic_stringIcSt11char_traitsIcESaIcEEEJSt14default_deleteIS5_EEERKT0_RKSt11_Tuple_implIXT_EJS9_DpT1_EE
FNDA:0,_ZSt12__get_helperILm0EPNSt7__cxx1112basic_stringIcSt11char_traitsIcESaIcEEEJSt14default_deleteIS5_EEERKT0_RKSt11_Tuple_implIXT_EJS9_DpT1_EE
FN:1393,_ZSt3getILm1EJPNSt7__cxx1118basic_stringstreamIcSt11char_traitsIcESaIcEEESt14default_deleteIS5_EEERNSt13tuple_elementIXT_ESt5tupleIJDpT0_EEE4typeERSD_
FNDA:59,_ZSt3getILm1EJPNSt7__cxx1118basic_stringstreamIcSt11char_traitsIcESaIcEEESt14default_deleteIS5_EEERNSt13tuple_elementIXT_ESt5tupleIJDpT0_EEE4typeERSD_
FN:1393,_ZSt3getILm1EJPNSt7__cxx1112basic_stringIcSt11char_traitsIcESaIcEEESt14default_deleteIS5_EEERNSt13tuple_elementIXT_ESt5tupleIJDpT0_EEE4typeERSD_
FNDA:0,_ZSt3getILm1EJPNSt7__cxx1112basic_stringIcSt11char_traitsIcESaIcEEESt14default_deleteIS5_EEERNSt13tuple_elementIXT_ESt5tupleIJDpT0_EEE4typeERSD_
FN:1393,_ZSt3getILm0EJPNSt7__cxx1112basic_stringIcSt11char_traitsIcESaIcEEESt14default_deleteIS5_EEERNSt13tuple_elementIXT_ESt5tupleIJDpT0_EEE4typeERSD_
FNDA:7,_ZSt3getILm0EJPNSt7__cxx1112basic_stringIcSt11char_traitsIcESaIcEEESt14default_deleteIS5_EEERNSt13tuple_elementIXT_ESt5tupleIJDpT0_EEE4typeERSD_
FN:1393,_ZSt3getILm0EJPNSt7__cxx1118basic_stringstreamIcSt11char_traitsIcESaIcEEESt14default_deleteIS5_EEERNSt13tuple_elementIXT_ESt5tupleIJDpT0_EEE4typeERSD_
FNDA:118,_ZSt3getILm0EJPNSt7__cxx1118basic_stringstreamIcSt11char_traitsIcESaIcEEESt14default_deleteIS5_EEERNSt13tuple_elementIXT_ESt5tupleIJDpT0_EEE4typeERSD_
FN:1393,_ZSt3getILm0EJPNSt6thread6_StateESt14default_deleteIS1_EEERNSt13tuple_elementIXT_ESt5tupleIJDpT0_EEE4typeERS9_
FNDA:16,_ZSt3getILm0EJPNSt6thread6_StateESt14default_deleteIS1_EEERNSt13tuple_elementIXT_ESt5tupleIJDpT0_EEE4typeERS9_
FN:1393,_ZSt3getILm1EJPNSt6thread6_StateESt14default_deleteIS1_EEERNSt13tuple_elementIXT_ESt5tupleIJDpT0_EEE4typeERS9_
FNDA:0,_ZSt3getILm1EJPNSt6thread6_StateESt14default_deleteIS1_EEERNSt13tuple_elementIXT_ESt5tupleIJDpT0_EEE4typeERS9_
FN:1399,_ZSt3getILm0EJPNSt7__cxx1112basic_stringIcSt11char_traitsIcESaIcEEESt14default_deleteIS5_EEERKNSt13tuple_elementIXT_ESt5tupleIJDpT0_EEE4typeERKSD_
FNDA:0,_ZSt3getILm0EJPNSt7__cxx1112basic_stringIcSt11char_traitsIcESaIcEEESt14default_deleteIS5_EEERKNSt13tuple_elementIXT_ESt5tupleIJDpT0_EEE4typeERKSD_
FN:1405,_ZSt3getILm0EJZN22EventFlagTest_And_Test8TestBodyEvEUlvE_EEONSt13tuple_elementIXT_ESt5tupleIJDpT0_EEE4typeEOS6_
FNDA:1,_ZSt3getILm0EJZN22EventFlagTest_And_Test8TestBodyEvEUlvE_EEONSt13tuple_elementIXT_ESt5tupleIJDpT0_EEE4typeEOS6_
FN:1405,_ZSt3getILm0EJZN21EventFlagTest_Or_Test8TestBodyEvEUlvE_EEONSt13tuple_elementIXT_ESt5tupleIJDpT0_EEE4typeEOS6_
FNDA:1,_ZSt3getILm0EJZN21EventFlagTest_Or_Test8TestBodyEvEUlvE_EEONSt13tuple_elementIXT_ESt5tupleIJDpT0_EEE4typeEOS6_
FN:1405,_ZSt3getILm0EJZN31EventFlagTest_TimedOut_And_Test8TestBodyEvEUlvE_EEONSt13tuple_elementIXT_ESt5tupleIJDpT0_EEE4typeEOS6_
FNDA:1,_ZSt3getILm0EJZN31EventFlagTest_TimedOut_And_Test8TestBodyEvEUlvE_EEONSt13tuple_elementIXT_ESt5tupleIJDpT0_EEE4typeEOS6_
FN:1405,_ZSt3getILm0EJZN30EventFlagTest_TimedOut_Or_Test8TestBodyEvEUlvE_EEONSt13tuple_elementIXT_ESt5tupleIJDpT0_EEE4typeEOS6_
FNDA:1,_ZSt3getILm0EJZN30EventFlagTest_TimedOut_Or_Test8TestBodyEvEUlvE_EEONSt13tuple_elementIXT_ESt5tupleIJDpT0_EEE4typeEOS6_
FN:1405,_ZSt3getILm0EJSt8functionIFvvEEEEONSt13tuple_elementIXT_ESt5tupleIJDpT0_EEE4typeEOS7_
FNDA:2,_ZSt3getILm0EJSt8functionIFvvEEEEONSt13tuple_elementIXT_ESt5tupleIJDpT0_EEE4typeEOS7_
FN:1405,_ZSt3getILm0EJZN33EventFlagTest_WaitMultiple_2_Test8TestBodyEvEUlvE0_EEONSt13tuple_elementIXT_ESt5tupleIJDpT0_EEE4typeEOS6_
FNDA:1,_ZSt3getILm0EJZN33EventFlagTest_WaitMultiple_2_Test8TestBodyEvEUlvE0_EEONSt13tuple_elementIXT_ESt5tupleIJDpT0_EEE4typeEOS6_
FN:1405,_ZSt3getILm0EJZN33EventFlagTest_WaitMultiple_2_Test8TestBodyEvEUlvE_EEONSt13tuple_elementIXT_ESt5tupleIJDpT0_EEE4typeEOS6_
FNDA:1,_ZSt3getILm0EJZN33EventFlagTest_WaitMultiple_2_Test8TestBodyEvEUlvE_EEONSt13tuple_elementIXT_ESt5tupleIJDpT0_EEE4typeEOS6_
DA:80,8
DA:81,8
DA:124,0
DA:124,59
DA:124,0
DA:189,8
DA:190,8
DA:199,1
DA:200,1
DA:199,1
DA:200,1
DA:199,2
DA:200,2
DA:199,1
DA:200,1
DA:199,1
DA:200,1
DA:199,1
DA:200,1
DA:199,1
DA:200,1
DA:233,1
DA:233,1
DA:233,1
DA:233,1
DA:233,2
DA:233,1
DA:233,1
DA:233,16
DA:233,7
DA:233,118
DA:236,0
DA:268,16
DA:268,7
DA:268,118
DA:271,0
DA:279,8
DA:280,8
DA:424,1
DA:424,1
DA:424,1
DA:424,1
DA:424,2
DA:424,1
DA:424,1
DA:424,0
DA:424,59
DA:424,0
DA:430,8
DA:431,8
DA:440,1
DA:441,1
DA:442,1
DA:440,1
DA:441,1
DA:442,1
DA:440,2
DA:441,2
DA:442,2
DA:440,1
DA:441,1
DA:442,1
DA:440,1
DA:441,1
DA:442,1
DA:440,1
DA:441,1
DA:442,1
DA:440,1
DA:441,1
DA:442,1
DA:742,1
DA:744,1
DA:742,1
DA:744,1
DA:742,2
DA:744,2
DA:742,1
DA:744,1
DA:742,1
DA:744,1
DA:742,1
DA:744,1
DA:742,1
DA:744,1
DA:1049,8
DA:1051,8
DA:1377,1
DA:1378,1
DA:1377,1
DA:1378,1
DA:1377,1
DA:1378,1
DA:1377,1
DA:1378,1
DA:1377,2
DA:1378,2
DA:1377,1
DA:1378,1
DA:1377,1
DA:1378,1
DA:1377,0
DA:1378,0
DA:1377,16
DA:1378,16
DA:1377,59
DA:1378,59
DA:1377,0
DA:1378,0
DA:1377,7
DA:1378,7
DA:1377,118
DA:1378,118
DA:1382,0
DA:1383,0
DA:1393,0
DA:1394,0
DA:1393,16
DA:1394,16
DA:1393,59
DA:1394,59
DA:1393,0
DA:1394,0
DA:1393,7
DA:1394,7
DA:1393,118
DA:1394,118
DA:1399,0
DA:1400,0
DA:1405,1
DA:1408,1
DA:1405,1
DA:1408,1
DA:1405,1
DA:1408,1
DA:1405,1
DA:1408,1
DA:1405,2
DA:1408,2
DA:1405,1
DA:1408,1
DA:1405,1
DA:1408,1
end_of_record
SF:/usr/include/c++/11/bits/invoke.h
FN:60,_ZSt13__invoke_implIvZN22EventFlagTest_And_Test8TestBodyEvEUlvE_JEET_St14__invoke_otherOT0_DpOT1_
FNDA:1,_ZSt13__invoke_implIvZN22EventFlagTest_And_Test8TestBodyEvEUlvE_JEET_St14__invoke_otherOT0_DpOT1_
FN:60,_ZSt13__invoke_implIvZN21EventFlagTest_Or_Test8TestBodyEvEUlvE_JEET_St14__invoke_otherOT0_DpOT1_
FNDA:1,_ZSt13__invoke_implIvZN21EventFlagTest_Or_Test8TestBodyEvEUlvE_JEET_St14__invoke_otherOT0_DpOT1_
FN:60,_ZSt13__invoke_implIvZN31EventFlagTest_TimedOut_And_Test8TestBodyEvEUlvE_JEET_St14__invoke_otherOT0_DpOT1_
FNDA:1,_ZSt13__invoke_implIvZN31EventFlagTest_TimedOut_And_Test8TestBodyEvEUlvE_JEET_St14__invoke_otherOT0_DpOT1_
FN:60,_ZSt13__invoke_implIvZN30EventFlagTest_TimedOut_Or_Test8TestBodyEvEUlvE_JEET_St14__invoke_otherOT0_DpOT1_
FNDA:1,_ZSt13__invoke_implIvZN30EventFlagTest_TimedOut_Or_Test8TestBodyEvEUlvE_JEET_St14__invoke_otherOT0_DpOT1_
FN:60,_ZSt13__invoke_implIvSt8functionIFvvEEJEET_St14__invoke_otherOT0_DpOT1_
FNDA:2,_ZSt13__invoke_implIvSt8functionIFvvEEJEET_St14__invoke_otherOT0_DpOT1_
FN:60,_ZSt13__invoke_implIvZN33EventFlagTest_WaitMultiple_2_Test8TestBodyEvEUlvE_JEET_St14__invoke_otherOT0_DpOT1_
FNDA:1,_ZSt13__invoke_implIvZN33EventFlagTest_WaitMultiple_2_Test8TestBodyEvEUlvE_JEET_St14__invoke_otherOT0_DpOT1_
FN:60,_ZSt13__invoke_implIvZN33EventFlagTest_WaitMultiple_2_Test8TestBodyEvEUlvE0_JEET_St14__invoke_otherOT0_DpOT1_
FNDA:1,_ZSt13__invoke_implIvZN33EventFlagTest_WaitMultiple_2_Test8TestBodyEvEUlvE0_JEET_St14__invoke_otherOT0_DpOT1_
FN:60,_ZSt13__invoke_implIvRZN33EventFlagTest_WaitMultiple_1_Test8TestBodyEvEUlvE_JEET_St14__invoke_otherOT0_DpOT1_
FNDA:2,_ZSt13__invoke_implIvRZN33EventFlagTest_WaitMultiple_1_Test8TestBodyEvEUlvE_JEET_St14__invoke_otherOT0_DpOT1_
FN:90,_ZSt8__invokeIZN22EventFlagTest_And_Test8TestBodyEvEUlvE_JEENSt15__invoke_resultIT_JDpT0_EE4typeEOS3_DpOS4_
FNDA:1,_ZSt8__invokeIZN22EventFlagTest_And_Test8TestBodyEvEUlvE_JEENSt15__invoke_resultIT_JDpT0_EE4typeEOS3_DpOS4_
FN:90,_ZSt8__invokeIZN21EventFlagTest_Or_Test8TestBodyEvEUlvE_JEENSt15__invoke_resultIT_JDpT0_EE4typeEOS3_DpOS4_
FNDA:1,_ZSt8__invokeIZN21EventFlagTest_Or_Test8TestBodyEvEUlvE_JEENSt15__invoke_resultIT_JDpT0_EE4typeEOS3_DpOS4_
FN:90,_ZSt8__invokeIZN31EventFlagTest_TimedOut_And_Test8TestBodyEvEUlvE_JEENSt15__invoke_resultIT_JDpT0_EE4typeEOS3_DpOS4_
FNDA:1,_ZSt8__invokeIZN31EventFlagTest_TimedOut_And_Test8TestBodyEvEUlvE_JEENSt15__invoke_resultIT_JDpT0_EE4typeEOS3_DpOS4_
FN:90,_ZSt8__invokeIZN30EventFlagTest_TimedOut_Or_Test8TestBodyEvEUlvE_JEENSt15__invoke_resultIT_JDpT0_EE4typeEOS3_DpOS4_
FNDA:1,_ZSt8__invokeIZN30EventFlagTest_TimedOut_Or_Test8TestBodyEvEUlvE_JEENSt15__invoke_resultIT_JDpT0_EE4typeEOS3_DpOS4_
FN:90,_ZSt8__invokeISt8functionIFvvEEJEENSt15__invoke_resultIT_JDpT0_EE4typeEOS4_DpOS5_
FNDA:2,_ZSt8__invokeISt8functionIFvvEEJEENSt15__invoke_resultIT_JDpT0_EE4typeEOS4_DpOS5_
FN:90,_ZSt8__invokeIZN33EventFlagTest_WaitMultiple_2_Test8TestBodyEvEUlvE_JEENSt15__invoke_resultIT_JDpT0_EE4typeEOS3_DpOS4_
FNDA:1,_ZSt8__invokeIZN33EventFlagTest_WaitMultiple_2_Test8TestBodyEvEUlvE_JEENSt15__invoke_resultIT_JDpT0_EE4typeEOS3_DpOS4_
FN:90,_ZSt8__invokeIZN33EventFlagTest_WaitMultiple_2_Test8TestBodyEvEUlvE0_JEENSt15__invoke_resultIT_JDpT0_EE4typeEOS3_DpOS4_
FNDA:1,_ZSt8__invokeIZN33EventFlagTest_WaitMultiple_2_Test8TestBodyEvEUlvE0_JEENSt15__invoke_resultIT_JDpT0_EE4typeEOS3_DpOS4_
FN:104,_ZSt10__invoke_rIvRZN33EventFlagTest_WaitMultiple_1_Test8TestBodyEvEUlvE_JEENSt9enable_ifIX16is_invocable_r_vIT_T0_DpT1_EES4_E4typeEOS5_DpOS6_
FNDA:2,_ZSt10__invoke_rIvRZN33EventFlagTest_WaitMultiple_1_Test8TestBodyEvEUlvE_JEENSt9enable_ifIX16is_invocable_r_vIT_T0_DpT1_EES4_E4typeEOS5_DpOS6_
DA:60,1
DA:61,1
DA:60,1
DA:61,1
DA:60,1
DA:61,1
DA:60,1
DA:61,1
DA:60,2
DA:61,2
DA:60,1
DA:61,1
DA:60,1
DA:61,1
DA:60,2
DA:61,2
DA:90,1
DA:96,1
DA:97,1
DA:90,1
DA:96,1
DA:97,1
DA:90,1
DA:96,1
DA:97,1
DA:90,1
DA:96,1
DA:97,1
DA:90,2
DA:96,2
DA:97,2
DA:90,1
DA:96,1
DA:97,1
DA:90,1
DA:96,1
DA:97,1
DA:104,2
DA:111,2
DA:117,2
end_of_record
SF:/home/atohs/cpp/CppLearning/tests/EventFlagTest/main.cpp
FN:10,_ZN25EventFlagTest_GetSet_TestC2Ev
FNDA:1,_ZN25EventFlagTest_GetSet_TestC2Ev
FN:10,_ZN25EventFlagTest_GetSet_Test8TestBodyEv
FNDA:1,_ZN25EventFlagTest_GetSet_Test8TestBodyEv
FN:10,_ZN25EventFlagTest_GetSet_TestD2Ev
FNDA:1,_ZN25EventFlagTest_GetSet_TestD2Ev
FN:10,_ZN25EventFlagTest_GetSet_TestD0Ev
FNDA:1,_ZN25EventFlagTest_GetSet_TestD0Ev
FN:16,_ZN22EventFlagTest_And_TestC2Ev
FNDA:1,_ZN22EventFlagTest_And_TestC2Ev
FN:16,_ZN22EventFlagTest_And_Test8TestBodyEv
FNDA:1,_ZN22EventFlagTest_And_Test8TestBodyEv
FN:16,_ZN22EventFlagTest_And_TestD2Ev
FNDA:1,_ZN22EventFlagTest_And_TestD2Ev
FN:16,_ZN22EventFlagTest_And_TestD0Ev
FNDA:1,_ZN22EventFlagTest_And_TestD0Ev
FN:18,_ZZN22EventFlagTest_And_Test8TestBodyEvENKUlvE_clEv
FNDA:1,_ZZN22EventFlagTest_And_Test8TestBodyEvENKUlvE_clEv
FN:27,_ZN21EventFlagTest_Or_TestC2Ev
FNDA:1,_ZN21EventFlagTest_Or_TestC2Ev
FN:27,_ZN21EventFlagTest_Or_TestD0Ev
FNDA:1,_ZN21EventFlagTest_Or_TestD0Ev
FN:27,_ZN21EventFlagTest_Or_TestD2Ev
FNDA:1,_ZN21EventFlagTest_Or_TestD2Ev
FN:27,_ZN21EventFlagTest_Or_Test8TestBodyEv
FNDA:1,_ZN21EventFlagTest_Or_Test8TestBodyEv
FN:29,_ZZN21EventFlagTest_Or_Test8TestBodyEvENKUlvE_clEv
FNDA:1,_ZZN21EventFlagTest_Or_Test8TestBodyEvENKUlvE_clEv
FN:38,_ZN31EventFlagTest_TimedOut_And_Test8TestBodyEv
FNDA:1,_ZN31EventFlagTest_TimedOut_And_Test8TestBodyEv
FN:38,_ZN31EventFlagTest_TimedOut_And_TestD0Ev
FNDA:1,_ZN31EventFlagTest_TimedOut_And_TestD0Ev
FN:38,_ZN31EventFlagTest_TimedOut_And_TestD2Ev
FNDA:1,_ZN31EventFlagTest_TimedOut_And_TestD2Ev
FN:38,_ZN31EventFlagTest_TimedOut_And_TestC2Ev
FNDA:1,_ZN31EventFlagTest_TimedOut_And_TestC2Ev
FN:40,_ZZN31EventFlagTest_TimedOut_And_Test8TestBodyEvENKUlvE_clEv
FNDA:1,_ZZN31EventFlagTest_TimedOut_And_Test8TestBodyEvENKUlvE_clEv
FN:48,_ZN30EventFlagTest_TimedOut_Or_Test8TestBodyEv
FNDA:1,_ZN30EventFlagTest_TimedOut_Or_Test8TestBodyEv
FN:48,_ZN30EventFlagTest_TimedOut_Or_TestD2Ev
FNDA:1,_ZN30EventFlagTest_TimedOut_Or_TestD2Ev
FN:48,_ZN30EventFlagTest_TimedOut_Or_TestD0Ev
FNDA:1,_ZN30EventFlagTest_TimedOut_Or_TestD0Ev
FN:48,_ZN30EventFlagTest_TimedOut_Or_TestC2Ev
FNDA:1,_ZN30EventFlagTest_TimedOut_Or_TestC2Ev
FN:50,_ZZN30EventFlagTest_TimedOut_Or_Test8TestBodyEvENKUlvE_clEv
FNDA:1,_ZZN30EventFlagTest_TimedOut_Or_Test8TestBodyEvENKUlvE_clEv
FN:58,_ZN33EventFlagTest_WaitMultiple_1_TestC2Ev
FNDA:1,_ZN33EventFlagTest_WaitMultiple_1_TestC2Ev
FN:58,_ZN33EventFlagTest_WaitMultiple_1_Test8TestBodyEv
FNDA:1,_ZN33EventFlagTest_WaitMultiple_1_Test8TestBodyEv
FN:58,_ZN33EventFlagTest_WaitMultiple_1_TestD2Ev
FNDA:1,_ZN33EventFlagTest_WaitMultiple_1_TestD2Ev
FN:58,_ZN33EventFlagTest_WaitMultiple_1_TestD0Ev
FNDA:1,_ZN33EventFlagTest_WaitMultiple_1_TestD0Ev
FN:60,_ZZN33EventFlagTest_WaitMultiple_1_Test8TestBodyEvENKUlvE_clEv
FNDA:2,_ZZN33EventFlagTest_WaitMultiple_1_Test8TestBodyEvENKUlvE_clEv
FN:72,_ZN33EventFlagTest_WaitMultiple_2_Test8TestBodyEv
FNDA:1,_ZN33EventFlagTest_WaitMultiple_2_Test8TestBodyEv
FN:72,_ZN33EventFlagTest_WaitMultiple_2_TestD2Ev
FNDA:1,_ZN33EventFlagTest_WaitMultiple_2_TestD2Ev
FN:72,_ZN33EventFlagTest_WaitMultiple_2_TestD0Ev
FNDA:1,_ZN33EventFlagTest_WaitMultiple_2_TestD0Ev
FN:72,_ZN33EventFlagTest_WaitMultiple_2_TestC2Ev
FNDA:1,_ZN33EventFlagTest_WaitMultiple_2_TestC2Ev
FN:74,_ZZN33EventFlagTest_WaitMultiple_2_Test8TestBodyEvENKUlvE_clEv
FNDA:1,_ZZN33EventFlagTest_WaitMultiple_2_Test8TestBodyEvENKUlvE_clEv
FN:79,_ZZN33EventFlagTest_WaitMultiple_2_Test8TestBodyEvENKUlvE0_clEv
FNDA:1,_ZZN33EventFlagTest_WaitMultiple_2_Test8TestBodyEvENKUlvE0_clEv
DA:10,1
DA:10,1
DA:10,1
DA:10,1
DA:11,1
DA:12,1
DA:13,1
DA:14,1
DA:16,1
DA:16,1
DA:16,1
DA:16,1
DA:17,1
DA:18,1
DA:21,1
DA:22,1
DA:23,1
DA:24,1
DA:25,2
DA:18,1
DA:19,1
DA:20,1
DA:21,1
DA:27,1
DA:27,1
DA:27,1
DA:27,1
DA:28,1
DA:29,1
DA:32,1
DA:33,1
DA:34,1
DA:35,1
DA:36,2
DA:29,1
DA:30,1
DA:31,1
DA:32,1
DA:38,1
DA:38,1
DA:38,1
DA:38,1
DA:39,1
DA:40,1
DA:42,1
DA:43,1
DA:44,1
DA:45,1
DA:46,2
DA:40,1
DA:41,1
DA:42,1
DA:48,1
DA:48,1
DA:48,1
DA:48,1
DA:49,1
DA:50,1
DA:52,1
DA:53,1
DA:54,1
DA:55,1
DA:56,2
DA:50,1
DA:51,1
DA:52,1
DA:58,1
DA:58,1
DA:58,1
DA:58,1
DA:59,1
DA:60,1
DA:64,1
DA:65,1
DA:66,1
DA:67,1
DA:68,1
DA:69,1
DA:70,2
DA:60,2
DA:61,2
DA:62,2
DA:64,2
DA:72,1
DA:72,1
DA:72,1
DA:72,1
DA:73,1
DA:74,1
DA:78,1
DA:79,1
DA:83,1
DA:84,1
DA:85,1
DA:86,1
DA:87,1
DA:88,2
DA:74,1
DA:75,1
DA:76,1
DA:78,1
DA:79,1
DA:80,1
DA:81,0
DA:83,1
end_of_record
SF:/usr/include/c++/11/bits/unique_lock.h
FN:66,_ZNSt11unique_lockISt5mutexEC2ERS0_
FNDA:8,_ZNSt11unique_lockISt5mutexEC2ERS0_
FN:101,_ZNSt11unique_lockISt5mutexED2Ev
FNDA:8,_ZNSt11unique_lockISt5mutexED2Ev
FN:131,_ZNSt11unique_lockISt5mutexE4lockEv
FNDA:8,_ZNSt11unique_lockISt5mutexE4lockEv
FN:189,_ZNSt11unique_lockISt5mutexE6unlockEv
FNDA:8,_ZNSt11unique_lockISt5mutexE6unlockEv
FN:224,_ZNKSt11unique_lockISt5mutexE5mutexEv
FNDA:5,_ZNKSt11unique_lockISt5mutexE5mutexEv
DA:66,8
DA:67,8
DA:69,8
DA:70,8
DA:71,8
DA:101,8
DA:103,8
DA:104,8
DA:105,8
DA:131,8
DA:133,8
DA:134,0
DA:135,8
DA:136,0
DA:139,8
DA:140,8
DA:142,8
DA:189,8
DA:191,8
DA:192,0
DA:193,8
DA:195,8
DA:196,8
DA:198,8
DA:224,5
DA:225,5
end_of_record
SF:/usr/include/c++/11/condition_variable
FN:100,_ZNSt18condition_variable4waitIZN5EFlag9EventFlag4WaitEmNS1_9MatchModeEEUlvE_EEvRSt11unique_lockISt5mutexET_
FNDA:2,_ZNSt18condition_variable4waitIZN5EFlag9EventFlag4WaitEmNS1_9MatchModeEEUlvE_EEvRSt11unique_lockISt5mutexET_
FN:109,_ZNSt18condition_variable10wait_untilINSt6chrono8durationIlSt5ratioILl1ELl1000000000EEEEEESt9cv_statusRSt11unique_lockISt5mutexERKNS1_10time_pointINS1_3_V212steady_clockET_EE
FNDA:5,_ZNSt18condition_variable10wait_untilINSt6chrono8durationIlSt5ratioILl1ELl1000000000EEEEEESt9cv_statusRSt11unique_lockISt5mutexERKNS1_10time_pointINS1_3_V212steady_clockET_EE
FN:147,_ZNSt18condition_variable10wait_untilINSt6chrono3_V212steady_clockENS1_8durationIlSt5ratioILl1ELl1000000000EEEEZN5EFlag9EventFlag9TimedWaitEmNS8_9MatchModeENS4_IlS5_ILl1ELl1000EEEEEUlvE_EEbRSt11unique_lockISt5mutexERKNS1_10time_pointIT_T0_EET1_
FNDA:6,_ZNSt18condition_variable10wait_untilINSt6chrono3_V212steady_clockENS1_8durationIlSt5ratioILl1ELl1000000000EEEEZN5EFlag9EventFlag9TimedWaitEmNS8_9MatchModeENS4_IlS5_ILl1ELl1000EEEEEUlvE_EEbRSt11unique_lockISt5mutexERKNS1_10time_pointIT_T0_EET1_
FN:170,_ZNSt18condition_variable8wait_forIlSt5ratioILl1ELl1000EEZN5EFlag9EventFlag9TimedWaitEmNS3_9MatchModeENSt6chrono8durationIlS2_EEEUlvE_EEbRSt11unique_lockISt5mutexERKNS7_IT_T0_EET1_
FNDA:6,_ZNSt18condition_variable8wait_forIlSt5ratioILl1ELl1000EEZN5EFlag9EventFlag9TimedWaitEmNS3_9MatchModeENSt6chrono8durationIlS2_EEEUlvE_EEbRSt11unique_lockISt5mutexERKNS7_IT_T0_EET1_
FN:189,_ZNSt18condition_variable17__wait_until_implINSt6chrono8durationIlSt5ratioILl1ELl1000000000EEEEEESt9cv_statusRSt11unique_lockISt5mutexERKNS1_10time_pointINS1_3_V212steady_clockET_EE
FNDA:5,_ZNSt18condition_variable17__wait_until_implINSt6chrono8durationIlSt5ratioILl1ELl1000000000EEEEEESt9cv_statusRSt11unique_lockISt5mutexERKNS1_10time_pointINS1_3_V212steady_clockET_EE
DA:100,2
DA:102,2
DA:103,0
DA:104,2
DA:109,5
DA:111,5
DA:147,6
DA:151,6
DA:152,5
DA:153,5
DA:154,1
DA:170,6
DA:175,6
DA:176,18
DA:177,12
DA:178,12
DA:189,5
DA:192,5
DA:193,5
DA:195,5
DA:197,5
DA:198,5
DA:201,5
DA:203,15
DA:204,20
end_of_record
SF:/usr/include/c++/11/bits/stl_algobase.h
FN:313,_ZSt12__niter_baseIPcET_S1_
FNDA:0,_ZSt12__niter_baseIPcET_S1_
FN:313,_ZSt12__niter_baseIPKcET_S2_
FNDA:0,_ZSt12__niter_baseIPKcET_S2_
FN:335,_ZSt12__niter_wrapIPcET_RKS1_S1_
FNDA:0,_ZSt12__niter_wrapIPcET_RKS1_S1_
FN:380,_ZNSt11__copy_moveILb0ELb0ESt26random_access_iterator_tagE8__copy_mIPKcPcEET0_T_S7_S6_
FNDA:0,_ZNSt11__copy_moveILb0ELb0ESt26random_access_iterator_tagE8__copy_mIPKcPcEET0_T_S7_S6_
FN:420,_ZNSt11__copy_moveILb0ELb1ESt26random_access_iterator_tagE8__copy_mIcEEPT_PKS3_S6_S4_
FNDA:0,_ZNSt11__copy_moveILb0ELb1ESt26random_access_iterator_tagE8__copy_mIcEEPT_PKS3_S6_S4_
FN:486,_ZSt14__copy_move_a2ILb0EPKcPcET1_T0_S4_S3_
FNDA:0,_ZSt14__copy_move_a2ILb0EPKcPcET1_T0_S4_S3_
FN:521,_ZSt14__copy_move_a1ILb0EPKcPcET1_T0_S4_S3_
FNDA:0,_ZSt14__copy_move_a1ILb0EPKcPcET1_T0_S4_S3_
FN:527,_ZSt13__copy_move_aILb0EPKcPcET1_T0_S4_S3_
FNDA:0,_ZSt13__copy_move_aILb0EPKcPcET1_T0_S4_S3_
FN:611,_ZSt4copyIPKcPcET0_T_S4_S3_
FNDA:0,_ZSt4copyIPKcPcET0_T_S4_S3_
DA:313,0
DA:315,0
DA:313,0
DA:315,0
DA:335,0
DA:336,0
DA:380,0
DA:383,0
DA:385,0
DA:386,0
DA:387,0
DA:389,0
DA:420,0
DA:429,0
DA:430,0
DA:431,0
DA:432,0
DA:486,0
DA:490,0
DA:492,0
DA:495,0
DA:521,0
DA:522,0
DA:527,0
DA:529,0
DA:532,0
DA:611,0
DA:620,0
end_of_record
SF:/usr/include/c++/11/bits/stl_iterator_base_types.h
FN:238,_ZSt19__iterator_categoryIPKcENSt15iterator_traitsIT_E17iterator_categoryERKS3_
FNDA:43,_ZSt19__iterator_categoryIPKcENSt15iterator_traitsIT_E17iterator_categoryERKS3_
DA:238,43
DA:239,43
end_of_record
SF:/home/atohs/cpp/CppLearning/build/_deps/googletest-src/googletest/include/gtest/internal/gtest-internal.h
FN:419,_ZN7testing8internal9GetTypeIdI13EventFlagTestEEPKvv
FNDA:7,_ZN7testing8internal9GetTypeIdI13EventFlagTestEEPKvv
FN:438,_ZN7testing8internal15TestFactoryBaseD0Ev
FNDA:0,_ZN7testing8internal15TestFactoryBaseD0Ev
FN:438,_ZN7testing8internal15TestFactoryBaseD2Ev
FNDA:7,_ZN7testing8internal15TestFactoryBaseD2Ev
FN:445,_ZN7testing8internal15TestFactoryBaseC2Ev
FNDA:7,_ZN7testing8internal15TestFactoryBaseC2Ev
FN:457,_ZN7testing8internal15TestFactoryImplI25EventFlagTest_GetSet_TestE10CreateTestEv
FNDA:1,_ZN7testing8internal15TestFactoryImplI25EventFlagTest_GetSet_TestE10CreateTestEv
FN:457,_ZN7testing8internal15TestFactoryImplI22EventFlagTest_And_TestE10CreateTestEv
FNDA:1,_ZN7testing8internal15TestFactoryImplI22EventFlagTest_And_TestE10CreateTestEv
FN:457,_ZN7testing8internal15TestFactoryImplI21EventFlagTest_Or_TestE10CreateTestEv
FNDA:1,_ZN7testing8internal15TestFactoryImplI21EventFlagTest_Or_TestE10CreateTestEv
FN:457,_ZN7testing8internal15TestFactoryImplI31EventFlagTest_TimedOut_And_TestE10CreateTestEv
FNDA:1,_ZN7testing8internal15TestFactoryImplI31EventFlagTest_TimedOut_And_TestE10CreateTestEv
FN:457,_ZN7testing8internal15TestFactoryImplI30EventFlagTest_TimedOut_Or_TestE10CreateTestEv
FNDA:1,_ZN7testing8internal15TestFactoryImplI30EventFlagTest_TimedOut_Or_TestE10CreateTestEv
FN:457,_ZN7testing8internal15TestFactoryImplI33EventFlagTest_WaitMultiple_1_TestE10CreateTestEv
FNDA:1,_ZN7testing8internal15TestFactoryImplI33EventFlagTest_WaitMultiple_1_TestE10CreateTestEv
FN:457,_ZN7testing8internal15TestFactoryImplI33EventFlagTest_WaitMultiple_2_TestE10CreateTestEv
FNDA:1,_ZN7testing8internal15TestFactoryImplI33EventFlagTest_WaitMultiple_2_TestE10CreateTestEv
FN:478,_ZN7testing8internal12CodeLocationC2ENSt7__cxx1112basic_stringIcSt11char_traitsIcESaIcEEEi
FNDA:7,_ZN7testing8internal12CodeLocationC2ENSt7__cxx1112basic_stringIcSt11char_traitsIcESaIcEEEi
FN:491,_ZN7testing8internal19GetNotDefaultOrNullEPFvvES2_
FNDA:28,_ZN7testing8internal19GetNotDefaultOrNullEPFvvES2_
FN:506,_ZN7testing8internal16SuiteApiResolverI13EventFlagTestE19GetSetUpCaseOrSuiteEPKci
FNDA:7,_ZN7testing8internal16SuiteApiResolverI13EventFlagTestE19GetSetUpCaseOrSuiteEPKci
FN:527,_ZN7testing8internal16SuiteApiResolverI13EventFlagTestE22GetTearDownCaseOrSuiteEPKci
FNDA:7,_ZN7testing8internal16SuiteApiResolverI13EventFlagTestE22GetTearDownCaseOrSuiteEPKci
DA:419,7
DA:424,7
DA:438,0
DA:438,7
DA:445,7
DA:457,1
DA:457,1
DA:457,1
DA:457,1
DA:457,1
DA:457,1
DA:457,1
DA:478,7
DA:479,7
DA:491,28
DA:493,28
DA:506,7
DA:510,7
DA:512,7
DA:514,7
DA:517,0
DA:519,7
DA:527,7
DA:531,7
DA:533,7
DA:535,7
DA:538,0
DA:540,7
end_of_record
SF:/usr/include/c++/11/bits/allocator.h
DA:182,115
DA:183,0
DA:185,115
DA:193,88
DA:195,0
DA:196,0
DA:199,88
end_of_record
SF:/home/atohs/cpp/CppLearning/build/_deps/googletest-src/googletest/include/gtest/gtest-printers.h
FN:245,_ZN7testing8internal52internal_stream_operator_without_lexical_name_lookup13StreamPrinter10PrintValueImvEEDTcvvlsdefp0_fp_ERKT_PSo
FNDA:0,_ZN7testing8internal52internal_stream_operator_without_lexical_name_lookup13StreamPrinter10PrintValueImvEEDTcvvlsdefp0_fp_ERKT_PSo
FN:245,_ZN7testing8internal52internal_stream_operator_without_lexical_name_lookup13StreamPrinter10PrintValueIivEEDTcvvlsdefp0_fp_ERKT_PSo
FNDA:0,_ZN7testing8internal52internal_stream_operator_without_lexical_name_lookup13StreamPrinter10PrintValueIivEEDTcvvlsdefp0_fp_ERKT_PSo
FN:349,_ZN7testing8internal17PrintWithFallbackIiEEvRKT_PSo
FNDA:0,_ZN7testing8internal17PrintWithFallbackIiEEvRKT_PSo
FN:349,_ZN7testing8internal17PrintWithFallbackImEEvRKT_PSo
FNDA:0,_ZN7testing8internal17PrintWithFallbackImEEvRKT_PSo
FN:380,_ZN7testing8internal19FormatForComparisonImmE6FormatB5cxx11ERKm
FNDA:0,_ZN7testing8internal19FormatForComparisonImmE6FormatB5cxx11ERKm
FN:380,_ZN7testing8internal19FormatForComparisonIbbE6FormatB5cxx11ERKb
FNDA:0,_ZN7testing8internal19FormatForComparisonIbbE6FormatB5cxx11ERKb
FN:380,_ZN7testing8internal19FormatForComparisonIiiE6FormatB5cxx11ERKi
FNDA:0,_ZN7testing8internal19FormatForComparisonIiiE6FormatB5cxx11ERKi
FN:460,_ZN7testing8internal33FormatForComparisonFailureMessageImmEENSt7__cxx1112basic_stringIcSt11char_traitsIcESaIcEEERKT_RKT0_
FNDA:0,_ZN7testing8internal33FormatForComparisonFailureMessageImmEENSt7__cxx1112basic_stringIcSt11char_traitsIcESaIcEEERKT_RKT0_
FN:460,_ZN7testing8internal33FormatForComparisonFailureMessageIbbEENSt7__cxx1112basic_stringIcSt11char_traitsIcESaIcEEERKT_RKT0_
FNDA:0,_ZN7testing8internal33FormatForComparisonFailureMessageIbbEENSt7__cxx1112basic_stringIcSt11char_traitsIcESaIcEEERKT_RKT0_
FN:460,_ZN7testing8internal33FormatForComparisonFailureMessageIiiEENSt7__cxx1112basic_stringIcSt11char_traitsIcESaIcEEERKT_RKT0_
FNDA:0,_ZN7testing8internal33FormatForComparisonFailureMessageIiiEENSt7__cxx1112basic_stringIcSt11char_traitsIcESaIcEEERKT_RKT0_
FN:487,_ZN7testing8internal7PrintToIiEEvRKT_PSo
FNDA:0,_ZN7testing8internal7PrintToIiEEvRKT_PSo
FN:487,_ZN7testing8internal7PrintToImEEvRKT_PSo
FNDA:0,_ZN7testing8internal7PrintToImEEvRKT_PSo
FN:506,_ZN7testing8internal7PrintToEbPSo
FNDA:0,_ZN7testing8internal7PrintToEbPSo
FN:836,_ZN7testing8internal16UniversalPrinterImE5PrintERKmPSo
FNDA:0,_ZN7testing8internal16UniversalPrinterImE5PrintERKmPSo
FN:836,_ZN7testing8internal16UniversalPrinterIbE5PrintERKbPSo
FNDA:0,_ZN7testing8internal16UniversalPrinterIbE5PrintERKbPSo
FN:836,_ZN7testing8internal16UniversalPrinterIiE5PrintERKiPSo
FNDA:0,_ZN7testing8internal16UniversalPrinterIiE5PrintERKiPSo
FN:1026,_ZN7testing8internal21UniversalTersePrinterIbE5PrintERKbPSo
FNDA:0,_ZN7testing8internal21UniversalTersePrinterIbE5PrintERKbPSo
FN:1026,_ZN7testing8internal21UniversalTersePrinterImE5PrintERKmPSo
FNDA:0,_ZN7testing8internal21UniversalTersePrinterImE5PrintERKmPSo
FN:1026,_ZN7testing8internal21UniversalTersePrinterIiE5PrintERKiPSo
FNDA:0,_ZN7testing8internal21UniversalTersePrinterIiE5PrintERKiPSo
FN:1145,_ZN7testing8internal14UniversalPrintImEEvRKT_PSo
FNDA:0,_ZN7testing8internal14UniversalPrintImEEvRKT_PSo
FN:1145,_ZN7testing8internal14UniversalPrintIbEEvRKT_PSo
FNDA:0,_ZN7testing8internal14UniversalPrintIbEEvRKT_PSo
FN:1145,_ZN7testing8internal14UniversalPrintIiEEvRKT_PSo
FNDA:0,_ZN7testing8internal14UniversalPrintIiEEvRKT_PSo
FN:1185,_ZN7testing13PrintToStringIiEENSt7__cxx1112basic_stringIcSt11char_traitsIcESaIcEEERKT_
FNDA:0,_ZN7testing13PrintToStringIiEENSt7__cxx1112basic_stringIcSt11char_traitsIcESaIcEEERKT_
FN:1185,_ZN7testing13PrintToStringIbEENSt7__cxx1112basic_stringIcSt11char_traitsIcESaIcEEERKT_
FNDA:0,_ZN7testing13PrintToStringIbEENSt7__cxx1112basic_stringIcSt11char_traitsIcESaIcEEERKT_
FN:1185,_ZN7testing13PrintToStringImEENSt7__cxx1112basic_stringIcSt11char_traitsIcESaIcEEERKT_
FNDA:0,_ZN7testing13PrintToStringImEENSt7__cxx1112basic_stringIcSt11char_traitsIcESaIcEEERKT_
DA:245,0
DA:249,0
DA:250,0
DA:245,0
DA:249,0
DA:250,0
DA:349,0
DA:359,0
DA:360,0
DA:349,0
DA:359,0
DA:360,0
DA:380,0
DA:381,0
DA:380,0
DA:381,0
DA:380,0
DA:381,0
DA:460,0
DA:462,0
DA:460,0
DA:462,0
DA:460,0
DA:462,0
DA:487,0
DA:488,0
DA:489,0
DA:487,0
DA:488,0
DA:489,0
DA:506,0
DA:507,0
DA:508,0
DA:836,0
DA:845,0
DA:846,0
DA:836,0
DA:845,0
DA:846,0
DA:836,0
DA:845,0
DA:846,0
DA:1026,0
DA:1027,0
DA:1028,0
DA:1026,0
DA:1027,0
DA:1028,0
DA:1026,0
DA:1027,0
DA:1028,0
DA:1145,0
DA:1149,0
DA:1150,0
DA:1145,0
DA:1149,0
DA:1150,0
DA:1145,0
DA:1149,0
DA:1150,0
DA:1185,0
DA:1186,0
DA:1187,0
DA:1188,0
DA:1189,0
DA:1185,0
DA:1186,0
DA:1187,0
DA:1188,0
DA:1189,0
DA:1185,0
DA:1186,0
DA:1187,0
DA:1188,0
DA:1189,0
end_of_record
SF:/usr/include/c++/11/bits/atomic_base.h
FN:104,_ZStanSt12memory_orderSt23__memory_order_modifier
FNDA:14,_ZStanSt12memory_orderSt23__memory_order_modifier
FN:338,_ZNSt13__atomic_baseImEC2Ev
FNDA:7,_ZNSt13__atomic_baseImEC2Ev
FN:347,_ZNKSt13__atomic_baseImEcvmEv
FNDA:14,_ZNKSt13__atomic_baseImEcvmEv
FN:424,_ZNSt13__atomic_baseImEoREm
FNDA:7,_ZNSt13__atomic_baseImEoREm
DA:104,14
DA:106,14
DA:338,7
DA:347,14
DA:348,14
DA:424,7
DA:425,7
DA:484,14
DA:488,14
end_of_record
SF:/usr/include/c++/11/bits/stl_iterator_base_funcs.h
FN:98,_ZSt10__distanceIPKcENSt15iterator_traitsIT_E15difference_typeES3_S3_St26random_access_iterator_tag
FNDA:43,_ZSt10__distanceIPKcENSt15iterator_traitsIT_E15difference_typeES3_S3_St26random_access_iterator_tag
FN:138,_ZSt8distanceIPKcENSt15iterator_traitsIT_E15difference_typeES3_S3_
FNDA:43,_ZSt8distanceIPKcENSt15iterator_traitsIT_E15difference_typeES3_S3_
DA:98,43
DA:104,43
DA:138,43
DA:141,43
DA:142,86
end_of_record
SF:/usr/include/c++/11/bits/basic_string.tcc
FN:132,_ZNSt7__cxx1112basic_stringIcSt11char_traitsIcESaIcEE9_M_createERmm
FNDA:115,_ZNSt7__cxx1112basic_stringIcSt11char_traitsIcESaIcEE9_M_createERmm
FN:206,_ZNSt7__cxx1112basic_stringIcSt11char_traitsIcESaIcEE12_M_constructIPKcEEvT_S8_St20forward_iterator_tag
FNDA:43,_ZNSt7__cxx1112basic_stringIcSt11char_traitsIcESaIcEE12_M_constructIPKcEEvT_S8_St20forward_iterator_tag
DA:132,115
DA:137,115
DA:138,0
DA:143,115
DA:145,43
DA:147,43
DA:148,0
DA:153,115
DA:206,43
DA:211,43
DA:212,0
DA:215,43
DA:217,43
DA:219,10
DA:220,10
DA:225,43
DA:232,43
DA:233,43
end_of_record
SF:/usr/include/c++/11/bits/ptr_traits.h
FN:149,_ZNSt14pointer_traitsIPKcE10pointer_toERS0_
FNDA:374,_ZNSt14pointer_traitsIPKcE10pointer_toERS0_
FN:149,_ZNSt14pointer_traitsIPcE10pointer_toERc
FNDA:193,_ZNSt14pointer_traitsIPcE10pointer_toERc
DA:149,374
DA:150,374
DA:149,193
DA:150,193
end_of_record
SF:/home/atohs/cpp/CppLearning/include/EventFlag.h
FN:19,_ZN5EFlag9EventFlag5MatchEmNS_9MatchModeE
FNDA:13,_ZN5EFlag9EventFlag5MatchEmNS_9MatchModeE
FN:26,_ZN5EFlag9EventFlag4WaitEmNS_9MatchModeE
FNDA:2,_ZN5EFlag9EventFlag4WaitEmNS_9MatchModeE
FN:28,_ZZN5EFlag9EventFlag4WaitEmNS_9MatchModeEENKUlvE_clEv
FNDA:2,_ZZN5EFlag9EventFlag4WaitEmNS_9MatchModeEENKUlvE_clEv
FN:32,_ZN5EFlag9EventFlag9TimedWaitEmNS_9MatchModeENSt6chrono8durationIlSt5ratioILl1ELl1000EEEE
FNDA:6,_ZN5EFlag9EventFlag9TimedWaitEmNS_9MatchModeENSt6chrono8durationIlSt5ratioILl1ELl1000EEEE
FN:34,_ZZN5EFlag9EventFlag9TimedWaitEmNS_9MatchModeENSt6chrono8durationIlSt5ratioILl1ELl1000EEEEENKUlvE_clEv
FNDA:11,_ZZN5EFlag9EventFlag9TimedWaitEmNS_9MatchModeENSt6chrono8durationIlSt5ratioILl1ELl1000EEEEENKUlvE_clEv
FN:38,_ZN5EFlag9EventFlag3SetEm
FNDA:7,_ZN5EFlag9EventFlag3SetEm
FN:41,_ZN5EFlag9EventFlag3GetEv
FNDA:1,_ZN5EFlag9EventFlag3GetEv
DA:19,13
DA:20,13
DA:21,10
DA:23,3
DA:26,2
DA:27,2
DA:28,2
DA:29,2
DA:31,4
DA:32,6
DA:33,6
DA:34,6
DA:35,11
DA:36,12
DA:37,6
DA:38,7
DA:39,7
DA:40,7
DA:41,1
DA:42,1
end_of_record
SF:/usr/include/c++/11/ext/type_traits.h
FN:152,_ZN9__gnu_cxx17__is_null_pointerIKcEEbPT_
FNDA:43,_ZN9__gnu_cxx17__is_null_pointerIKcEEbPT_
DA:152,43
DA:153,43
end_of_record
SF:/home/atohs/cpp/CppLearning/build/_deps/googletest-src/googletest/include/gtest/gtest.h
FN:257,_ZN7testing4Test14SetUpTestSuiteEv
FNDA:0,_ZN7testing4Test14SetUpTestSuiteEv
FN:265,_ZN7testing4Test17TearDownTestSuiteEv
FNDA:0,_ZN7testing4Test17TearDownTestSuiteEv
FN:270,_ZN7testing4Test16TearDownTestCaseEv
FNDA:0,_ZN7testing4Test16TearDownTestCaseEv
FN:271,_ZN7testing4Test13SetUpTestCaseEv
FNDA:0,_ZN7testing4Test13SetUpTestCaseEv
FN:358,_ZN7testing4Test5SetupEv
FNDA:0,_ZN7testing4Test5SetupEv
FN:1376,_ZN7testing8internal18CmpHelperEQFailureIiiEENS_15AssertionResultEPKcS4_RKT_RKT0_
FNDA:0,_ZN7testing8internal18CmpHelperEQFailureIiiEENS_15AssertionResultEPKcS4_RKT_RKT0_
FN:1376,_ZN7testing8internal18CmpHelperEQFailureIbbEENS_15AssertionResultEPKcS4_RKT_RKT0_
FNDA:0,_ZN7testing8internal18CmpHelperEQFailureIbbEENS_15AssertionResultEPKcS4_RKT_RKT0_
FN:1376,_ZN7testing8internal18CmpHelperEQFailureImmEENS_15AssertionResultEPKcS4_RKT_RKT0_
FNDA:0,_ZN7testing8internal18CmpHelperEQFailureImmEENS_15AssertionResultEPKcS4_RKT_RKT0_
FN:1393,_ZN7testing8internal11CmpHelperEQIiiEENS_15AssertionResultEPKcS4_RKT_RKT0_
FNDA:2,_ZN7testing8internal11CmpHelperEQIiiEENS_15AssertionResultEPKcS4_RKT_RKT0_
FN:1393,_ZN7testing8internal11CmpHelperEQIbbEENS_15AssertionResultEPKcS4_RKT_RKT0_
FNDA:4,_ZN7testing8internal11CmpHelperEQIbbEENS_15AssertionResultEPKcS4_RKT_RKT0_
FN:1393,_ZN7testing8internal11CmpHelperEQImmEENS_15AssertionResultEPKcS4_RKT_RKT0_
FNDA:1,_ZN7testing8internal11CmpHelperEQImmEENS_15AssertionResultEPKcS4_RKT_RKT0_
FN:1412,_ZN7testing8internal8EqHelper7CompareIiiLPv0EEENS_15AssertionResultEPKcS6_RKT_RKT0_
FNDA:2,_ZN7testing8internal8EqHelper7CompareIiiLPv0EEENS_15AssertionResultEPKcS6_RKT_RKT0_
FN:1412,_ZN7testing8internal8EqHelper7CompareIbbLPv0EEENS_15AssertionResultEPKcS6_RKT_RKT0_
FNDA:4,_ZN7testing8internal8EqHelper7CompareIbbLPv0EEENS_15AssertionResultEPKcS6_RKT_RKT0_
FN:1412,_ZN7testing8internal8EqHelper7CompareImmLPv0EEENS_15AssertionResultEPKcS6_RKT_RKT0_
FNDA:1,_ZN7testing8internal8EqHelper7CompareImmLPv0EEENS_15AssertionResultEPKcS6_RKT_RKT0_
DA:257,0
DA:265,0
DA:270,0
DA:271,0
DA:358,0
DA:1376,0
DA:1381,0
DA:1376,0
DA:1381,0
DA:1376,0
DA:1381,0
DA:1393,2
DA:1396,2
DA:1397,2
DA:1400,0
DA:1393,4
DA:1396,4
DA:1397,4
DA:1400,0
DA:1393,1
DA:1396,1
DA:1397,1
DA:1400,0
DA:1412,2
DA:1415,2
DA:1412,4
DA:1415,4
DA:1412,1
DA:1415,1
end_of_record
SF:/usr/include/c++/11/atomic
FN:896,_ZNSt6atomicImEC2Ev
FNDA:7,_ZNSt6atomicImEC2Ev
DA:896,7
end_of_record
SF:/usr/include/c++/11/bits/basic_string.h
FN:164,_ZNSt7__cxx1112basic_stringIcSt11char_traitsIcESaIcEE12_Alloc_hiderC2EPcRKS3_
FNDA:37,_ZNSt7__cxx1112basic_stringIcSt11char_traitsIcESaIcEE12_Alloc_hiderC2EPcRKS3_
FN:167,_ZNSt7__cxx1112basic_stringIcSt11char_traitsIcESaIcEE12_Alloc_hiderC2EPcOS3_
FNDA:78,_ZNSt7__cxx1112basic_stringIcSt11char_traitsIcESaIcEE12_Alloc_hiderC2EPcOS3_
FN:186,_ZNSt7__cxx1112basic_stringIcSt11char_traitsIcESaIcEE7_M_dataEPc
FNDA:118,_ZNSt7__cxx1112basic_stringIcSt11char_traitsIcESaIcEE7_M_dataEPc
FN:190,_ZNSt7__cxx1112basic_stringIcSt11char_traitsIcESaIcEE9_M_lengthEm
FNDA:199,_ZNSt7__cxx1112basic_stringIcSt11char_traitsIcESaIcEE9_M_lengthEm
FN:194,_ZNKSt7__cxx1112basic_stringIcSt11char_traitsIcESaIcEE7_M_dataEv
FNDA:1353,_ZNKSt7__cxx1112basic_stringIcSt11char_traitsIcESaIcEE7_M_dataEv
FN:198,_ZNSt7__cxx1112basic_stringIcSt11char_traitsIcESaIcEE13_M_local_dataEv
FNDA:193,_ZNSt7__cxx1112basic_stringIcSt11char_traitsIcESaIcEE13_M_local_dataEv
FN:208,_ZNKSt7__cxx1112basic_stringIcSt11char_traitsIcESaIcEE13_M_local_dataEv
FNDA:374,_ZNKSt7__cxx1112basic_stringIcSt11char_traitsIcESaIcEE13_M_local_dataEv
FN:218,_ZNSt7__cxx1112basic_stringIcSt11char_traitsIcESaIcEE11_M_capacityEm
FNDA:40,_ZNSt7__cxx1112basic_stringIcSt11char_traitsIcESaIcEE11_M_capacityEm
FN:222,_ZNSt7__cxx1112basic_stringIcSt11char_traitsIcESaIcEE13_M_set_lengthEm
FNDA:121,_ZNSt7__cxx1112basic_stringIcSt11char_traitsIcESaIcEE13_M_set_lengthEm
FN:229,_ZNKSt7__cxx1112basic_stringIcSt11char_traitsIcESaIcEE11_M_is_localEv
FNDA:374,_ZNKSt7__cxx1112basic_stringIcSt11char_traitsIcESaIcEE11_M_is_localEv
FN:237,_ZNSt7__cxx1112basic_stringIcSt11char_traitsIcESaIcEE10_M_disposeEv
FNDA:296,_ZNSt7__cxx1112basic_stringIcSt11char_traitsIcESaIcEE10_M_disposeEv
FN:244,_ZNSt7__cxx1112basic_stringIcSt11char_traitsIcESaIcEE10_M_destroyEm
FNDA:88,_ZNSt7__cxx1112basic_stringIcSt11char_traitsIcESaIcEE10_M_destroyEm
FN:294,_ZNSt7__cxx1112basic_stringIcSt11char_traitsIcESaIcEE16_M_get_allocatorEv
FNDA:281,_ZNSt7__cxx1112basic_stringIcSt11char_traitsIcESaIcEE16_M_get_allocatorEv
FN:298,_ZNKSt7__cxx1112basic_stringIcSt11char_traitsIcESaIcEE16_M_get_allocatorEv
FNDA:158,_ZNKSt7__cxx1112basic_stringIcSt11char_traitsIcESaIcEE16_M_get_allocatorEv
FN:354,_ZNSt7__cxx1112basic_stringIcSt11char_traitsIcESaIcEE7_S_copyEPcPKcm
FNDA:43,_ZNSt7__cxx1112basic_stringIcSt11char_traitsIcESaIcEE7_S_copyEPcPKcm
FN:404,_ZNSt7__cxx1112basic_stringIcSt11char_traitsIcESaIcEE13_S_copy_charsEPcPKcS7_
FNDA:43,_ZNSt7__cxx1112basic_stringIcSt11char_traitsIcESaIcEE13_S_copy_charsEPcPKcS7_
FN:533,_ZNSt7__cxx1112basic_stringIcSt11char_traitsIcESaIcEEC2IS3_EEPKcRKS3_
FNDA:37,_ZNSt7__cxx1112basic_stringIcSt11char_traitsIcESaIcEEC2IS3_EEPKcRKS3_
FN:565,_ZNSt7__cxx1112basic_stringIcSt11char_traitsIcESaIcEEC2EOS4_
FNDA:78,_ZNSt7__cxx1112basic_stringIcSt11char_traitsIcESaIcEEC2EOS4_
FN:671,_ZNSt7__cxx1112basic_stringIcSt11char_traitsIcESaIcEED2Ev
FNDA:296,_ZNSt7__cxx1112basic_stringIcSt11char_traitsIcESaIcEED2Ev
FN:926,_ZNKSt7__cxx1112basic_stringIcSt11char_traitsIcESaIcEE6lengthEv
FNDA:605,_ZNKSt7__cxx1112basic_stringIcSt11char_traitsIcESaIcEE6lengthEv
FN:931,_ZNKSt7__cxx1112basic_stringIcSt11char_traitsIcESaIcEE8max_sizeEv
FNDA:158,_ZNKSt7__cxx1112basic_stringIcSt11char_traitsIcESaIcEE8max_sizeEv
FN:2320,_ZNKSt7__cxx1112basic_stringIcSt11char_traitsIcESaIcEE5c_strEv
FNDA:697,_ZNKSt7__cxx1112basic_stringIcSt11char_traitsIcESaIcEE5c_strEv
DA:164,37
DA:165,37
DA:167,78
DA:168,78
DA:186,118
DA:187,118
DA:190,199
DA:191,199
DA:194,1353
DA:195,1353
DA:198,193
DA:201,193
DA:208,374
DA:211,374
DA:218,40
DA:219,40
DA:222,121
DA:224,121
DA:225,121
DA:226,121
DA:229,374
DA:230,374
DA:237,296
DA:239,296
DA:240,88
DA:241,296
DA:244,88
DA:245,88
DA:294,281
DA:295,281
DA:298,158
DA:299,158
DA:354,43
DA:356,43
DA:357,3
DA:359,40
DA:360,43
DA:404,43
DA:406,43
DA:533,37
DA:534,37
DA:536,37
DA:539,37
DA:540,37
DA:565,78
DA:566,78
DA:568,78
DA:570,48
DA:575,30
DA:576,30
DA:582,78
DA:583,78
DA:584,78
DA:585,78
DA:671,296
DA:672,296
DA:926,605
DA:927,605
DA:931,158
DA:932,158
DA:2320,697
DA:2321,697
end_of_record
SF:/home/atohs/cpp/CppLearning/build/_deps/googletest-src/googletest/include/gtest/internal/gtest-port.h
FN:1085,_ZN7testing8internal8GTestLog9GetStreamEv
FNDA:0,_ZN7testing8internal8GTestLog9GetStreamEv
DA:1085,0
end_of_record
SF:/usr/include/c++/11/bits/std_mutex.h
FN:65,_ZNSt12__mutex_baseC2Ev
FNDA:7,_ZNSt12__mutex_baseC2Ev
FN:91,_ZNSt5mutexC2Ev
FNDA:7,_ZNSt5mutexC2Ev
FN:98,_ZNSt5mutex4lockEv
FNDA:8,_ZNSt5mutex4lockEv
FN:115,_ZNSt5mutex6unlockEv
FNDA:8,_ZNSt5mutex6unlockEv
FN:122,_ZNSt5mutex13native_handleEv
FNDA:5,_ZNSt5mutex13native_handleEv
FN:167,_ZNSt9__condvar10wait_untilERSt5mutexiR8timespec
FNDA:5,_ZNSt9__condvar10wait_untilERSt5mutexiR8timespec
DA:65,7
DA:91,7
DA:98,8
DA:100,8
DA:103,8
DA:104,0
DA:105,8
DA:115,8
DA:118,8
DA:119,8
DA:122,5
DA:123,5
DA:167,5
DA:169,5
DA:171,5
end_of_record
SF:/usr/include/c++/11/type_traits
FN:3419,_ZSt21is_constant_evaluatedv
FNDA:283,_ZSt21is_constant_evaluatedv
DA:3419,283
DA:3420,283
end_of_record
SF:/home/atohs/cpp/CppLearning/build/_deps/googletest-src/googletest/include/gtest/gtest-assertion-result.h
FN:176,_ZNK7testing15AssertionResultcvbEv
FNDA:7,_ZNK7testing15AssertionResultcvbEv
FN:185,_ZNK7testing15AssertionResult7messageEv
FNDA:0,_ZNK7testing15AssertionResult7messageEv
FN:189,_ZNK7testing15AssertionResult15failure_messageEv
FNDA:0,_ZNK7testing15AssertionResult15failure_messageEv
DA:176,7
DA:185,0
DA:186,0
DA:189,0
end_of_record
SF:/usr/include/c++/11/bits/char_traits.h
FN:106,_ZN9__gnu_cxx11char_traitsIcE2eqERKcS3_
FNDA:0,_ZN9__gnu_cxx11char_traitsIcE2eqERKcS3_
FN:167,_ZN9__gnu_cxx11char_traitsIcE6lengthEPKc
FNDA:0,_ZN9__gnu_cxx11char_traitsIcE6lengthEPKc
FN:240,_ZN9__gnu_cxx11char_traitsIcE4copyEPcPKcm
FNDA:0,_ZN9__gnu_cxx11char_traitsIcE4copyEPcPKcm
FN:356,_ZNSt11char_traitsIcE6assignERcRKc
FNDA:124,_ZNSt11char_traitsIcE6assignERcRKc
FN:393,_ZNSt11char_traitsIcE6lengthEPKc
FNDA:37,_ZNSt11char_traitsIcE6lengthEPKc
FN:429,_ZNSt11char_traitsIcE4copyEPcPKcm
FNDA:88,_ZNSt11char_traitsIcE4copyEPcPKcm
DA:106,0
DA:107,0
DA:167,0
DA:170,0
DA:171,0
DA:172,0
DA:173,0
DA:240,0
DA:244,0
DA:245,0
DA:290,37
DA:356,124
DA:357,124
DA:393,37
DA:396,37
DA:397,0
DA:399,37
DA:429,88
DA:431,88
DA:432,8
DA:434,80
DA:435,0
DA:437,80
end_of_record
SF:/usr/include/c++/11/ext/new_allocator.h
FN:79,_ZN9__gnu_cxx13new_allocatorIcEC2Ev
FNDA:0,_ZN9__gnu_cxx13new_allocatorIcEC2Ev
FN:103,_ZN9__gnu_cxx13new_allocatorIcE8allocateEmPKv
FNDA:115,_ZN9__gnu_cxx13new_allocatorIcE8allocateEmPKv
FN:132,_ZN9__gnu_cxx13new_allocatorIcE10deallocateEPcm
FNDA:88,_ZN9__gnu_cxx13new_allocatorIcE10deallocateEPcm
FN:197,_ZNK9__gnu_cxx13new_allocatorIcE11_M_max_sizeEv
FNDA:115,_ZNK9__gnu_cxx13new_allocatorIcE11_M_max_sizeEv
DA:79,0
DA:103,115
DA:111,115
DA:117,0
DA:127,115
DA:132,88
DA:145,88
DA:197,115
DA:200,115
end_of_record
SF:/home/atohs/cpp/CppLearning/build/_deps/googletest-src/googletest/include/gtest/gtest-message.h
end_of_record
SF:/usr/include/c++/11/bits/move.h
FN:49,_ZSt11__addressofISt5mutexEPT_RS1_
FNDA:8,_ZSt11__addressofISt5mutexEPT_RS1_
FN:49,_ZSt11__addressofIKcEPT_RS1_
FNDA:374,_ZSt11__addressofIKcEPT_RS1_
FN:49,_ZSt11__addressofIKZN33EventFlagTest_WaitMultiple_1_Test8TestBodyEvEUlvE_EPT_RS3_
FNDA:4,_ZSt11__addressofIKZN33EventFlagTest_WaitMultiple_1_Test8TestBodyEvEUlvE_EPT_RS3_
FN:49,_ZSt11__addressofIcEPT_RS0_
FNDA:193,_ZSt11__addressofIcEPT_RS0_
FN:77,_ZSt7forwardIZN21EventFlagTest_Or_Test8TestBodyEvEUlvE_EOT_RNSt16remove_referenceIS2_E4typeE
FNDA:9,_ZSt7forwardIZN21EventFlagTest_Or_Test8TestBodyEvEUlvE_EOT_RNSt16remove_referenceIS2_E4typeE
FN:77,_ZSt7forwardIZN30EventFlagTest_TimedOut_Or_Test8TestBodyEvEUlvE_EOT_RNSt16remove_referenceIS2_E4typeE
FNDA:9,_ZSt7forwardIZN30EventFlagTest_TimedOut_Or_Test8TestBodyEvEUlvE_EOT_RNSt16remove_referenceIS2_E4typeE
FN:77,_ZSt7forwardIZN33EventFlagTest_WaitMultiple_1_Test8TestBodyEvEUlvE_EOT_RNSt16remove_referenceIS2_E4typeE
FNDA:3,_ZSt7forwardIZN33EventFlagTest_WaitMultiple_1_Test8TestBodyEvEUlvE_EOT_RNSt16remove_referenceIS2_E4typeE
FN:77,_ZSt7forwardIRSt8functionIFvvEEEOT_RNSt16remove_referenceIS4_E4typeE
FNDA:12,_ZSt7forwardIRSt8functionIFvvEEEOT_RNSt16remove_referenceIS4_E4typeE
FN:77,_ZSt7forwardIZN33EventFlagTest_WaitMultiple_2_Test8TestBodyEvEUlvE_EOT_RNSt16remove_referenceIS2_E4typeE
FNDA:9,_ZSt7forwardIZN33EventFlagTest_WaitMultiple_2_Test8TestBodyEvEUlvE_EOT_RNSt16remove_referenceIS2_E4typeE
FN:77,_ZSt7forwardIZN33EventFlagTest_WaitMultiple_2_Test8TestBodyEvEUlvE0_EOT_RNSt16remove_referenceIS2_E4typeE
FNDA:9,_ZSt7forwardIZN33EventFlagTest_WaitMultiple_2_Test8TestBodyEvEUlvE0_EOT_RNSt16remove_referenceIS2_E4typeE
FN:77,_ZSt7forwardISt8functionIFvvEEEOT_RNSt16remove_referenceIS3_E4typeE
FNDA:6,_ZSt7forwardISt8functionIFvvEEEOT_RNSt16remove_referenceIS3_E4typeE
FN:77,_ZSt7forwardIZN31EventFlagTest_TimedOut_And_Test8TestBodyEvEUlvE_EOT_RNSt16remove_referenceIS2_E4typeE
FNDA:9,_ZSt7forwardIZN31EventFlagTest_TimedOut_And_Test8TestBodyEvEUlvE_EOT_RNSt16remove_referenceIS2_E4typeE
FN:77,_ZSt7forwardIRZN33EventFlagTest_WaitMultiple_1_Test8TestBodyEvEUlvE_EOT_RNSt16remove_referenceIS3_E4typeE
FNDA:4,_ZSt7forwardIRZN33EventFlagTest_WaitMultiple_1_Test8TestBodyEvEUlvE_EOT_RNSt16remove_referenceIS3_E4typeE
FN:77,_ZSt7forwardIRKZN33EventFlagTest_WaitMultiple_1_Test8TestBodyEvEUlvE_EOT_RNSt16remove_referenceIS4_E4typeE
FNDA:4,_ZSt7forwardIRKZN33EventFlagTest_WaitMultiple_1_Test8TestBodyEvEUlvE_EOT_RNSt16remove_referenceIS4_E4typeE
FN:77,_ZSt7forwardIZN22EventFlagTest_And_Test8TestBodyEvEUlvE_EOT_RNSt16remove_referenceIS2_E4typeE
FNDA:9,_ZSt7forwardIZN22EventFlagTest_And_Test8TestBodyEvEUlvE_EOT_RNSt16remove_referenceIS2_E4typeE
FN:104,_ZSt4moveIRPNSt6thread6_StateEEONSt16remove_referenceIT_E4typeEOS5_
FNDA:0,_ZSt4moveIRPNSt6thread6_StateEEONSt16remove_referenceIT_E4typeEOS5_
FN:104,_ZSt4moveIRZN5EFlag9EventFlag9TimedWaitEmNS0_9MatchModeENSt6chrono8durationIlSt5ratioILl1ELl1000EEEEEUlvE_EONSt16remove_referenceIT_E4typeEOSB_
FNDA:6,_ZSt4moveIRZN5EFlag9EventFlag9TimedWaitEmNS0_9MatchModeENSt6chrono8durationIlSt5ratioILl1ELl1000EEEEEUlvE_EONSt16remove_referenceIT_E4typeEOSB_
FN:104,_ZSt4moveIRPNSt7__cxx1112basic_stringIcSt11char_traitsIcESaIcEEEEONSt16remove_referenceIT_E4typeEOS9_
FNDA:0,_ZSt4moveIRPNSt7__cxx1112basic_stringIcSt11char_traitsIcESaIcEEEEONSt16remove_referenceIT_E4typeEOS9_
FN:104,_ZSt4moveIRPNSt7__cxx1118basic_stringstreamIcSt11char_traitsIcESaIcEEEEONSt16remove_referenceIT_E4typeEOS9_
FNDA:59,_ZSt4moveIRPNSt7__cxx1118basic_stringstreamIcSt11char_traitsIcESaIcEEEEONSt16remove_referenceIT_E4typeEOS9_
FN:104,_ZSt4moveIRSaIcEEONSt16remove_referenceIT_E4typeEOS3_
FNDA:156,_ZSt4moveIRSaIcEEONSt16remove_referenceIT_E4typeEOS3_
FN:104,_ZSt4moveIRNSt7__cxx1112basic_stringIcSt11char_traitsIcESaIcEEEEONSt16remove_referenceIT_E4typeEOS8_
FNDA:80,_ZSt4moveIRNSt7__cxx1112basic_stringIcSt11char_traitsIcESaIcEEEEONSt16remove_referenceIT_E4typeEOS8_
FN:104,_ZSt4moveIRSt5tupleIJZN33EventFlagTest_WaitMultiple_2_Test8TestBodyEvEUlvE0_EEEONSt16remove_referenceIT_E4typeEOS6_
FNDA:1,_ZSt4moveIRSt5tupleIJZN33EventFlagTest_WaitMultiple_2_Test8TestBodyEvEUlvE0_EEEONSt16remove_referenceIT_E4typeEOS6_
FN:104,_ZSt4moveIRSt5tupleIJZN33EventFlagTest_WaitMultiple_2_Test8TestBodyEvEUlvE_EEEONSt16remove_referenceIT_E4typeEOS6_
FNDA:1,_ZSt4moveIRSt5tupleIJZN33EventFlagTest_WaitMultiple_2_Test8TestBodyEvEUlvE_EEEONSt16remove_referenceIT_E4typeEOS6_
FN:104,_ZSt4moveIRSt5tupleIJSt8functionIFvvEEEEEONSt16remove_referenceIT_E4typeEOS7_
FNDA:2,_ZSt4moveIRSt5tupleIJSt8functionIFvvEEEEEONSt16remove_referenceIT_E4typeEOS7_
FN:104,_ZSt4moveIRSt5tupleIJZN30EventFlagTest_TimedOut_Or_Test8TestBodyEvEUlvE_EEEONSt16remove_referenceIT_E4typeEOS6_
FNDA:1,_ZSt4moveIRSt5tupleIJZN30EventFlagTest_TimedOut_Or_Test8TestBodyEvEUlvE_EEEONSt16remove_referenceIT_E4typeEOS6_
FN:104,_ZSt4moveIRSt5tupleIJZN31EventFlagTest_TimedOut_And_Test8TestBodyEvEUlvE_EEEONSt16remove_referenceIT_E4typeEOS6_
FNDA:1,_ZSt4moveIRSt5tupleIJZN31EventFlagTest_TimedOut_And_Test8TestBodyEvEUlvE_EEEONSt16remove_referenceIT_E4typeEOS6_
FN:104,_ZSt4moveIRSt5tupleIJZN21EventFlagTest_Or_Test8TestBodyEvEUlvE_EEEONSt16remove_referenceIT_E4typeEOS6_
FNDA:1,_ZSt4moveIRSt5tupleIJZN21EventFlagTest_Or_Test8TestBodyEvEUlvE_EEEONSt16remove_referenceIT_E4typeEOS6_
FN:104,_ZSt4moveIRSt5tupleIJZN22EventFlagTest_And_Test8TestBodyEvEUlvE_EEEONSt16remove_referenceIT_E4typeEOS6_
FNDA:1,_ZSt4moveIRSt5tupleIJZN22EventFlagTest_And_Test8TestBodyEvEUlvE_EEEONSt16remove_referenceIT_E4typeEOS6_
FN:145,_ZSt9addressofIcEPT_RS0_
FNDA:193,_ZSt9addressofIcEPT_RS0_
FN:145,_ZSt9addressofIKcEPT_RS1_
FNDA:374,_ZSt9addressofIKcEPT_RS1_
DA:49,374
DA:50,374
DA:49,193
DA:50,193
DA:49,4
DA:50,4
DA:49,8
DA:50,8
DA:77,6
DA:78,6
DA:77,4
DA:78,4
DA:77,4
DA:78,4
DA:77,9
DA:78,9
DA:77,9
DA:78,9
DA:77,12
DA:78,12
DA:77,3
DA:78,3
DA:77,9
DA:78,9
DA:77,9
DA:78,9
DA:77,9
DA:78,9
DA:77,9
DA:78,9
DA:104,1
DA:105,1
DA:104,1
DA:105,1
DA:104,1
DA:105,1
DA:104,1
DA:105,1
DA:104,2
DA:105,2
DA:104,1
DA:105,1
DA:104,1
DA:105,1
DA:104,0
DA:105,0
DA:104,6
DA:105,6
DA:104,0
DA:105,0
DA:104,59
DA:105,59
DA:104,156
DA:105,156
DA:104,80
DA:105,80
DA:145,374
DA:146,374
DA:145,193
DA:146,193
end_of_record
SF:/usr/include/c++/11/bits/std_function.h
FN:85,_ZNSt9_Any_data9_M_accessEv
FNDA:6,_ZNSt9_Any_data9_M_accessEv
FN:86,_ZNKSt9_Any_data9_M_accessEv
FNDA:4,_ZNKSt9_Any_data9_M_accessEv
FN:90,_ZNSt9_Any_data9_M_accessIZN33EventFlagTest_WaitMultiple_1_Test8TestBodyEvEUlvE_EERT_v
FNDA:3,_ZNSt9_Any_data9_M_accessIZN33EventFlagTest_WaitMultiple_1_Test8TestBodyEvEUlvE_EERT_v
FN:90,_ZNSt9_Any_data9_M_accessIPKSt9type_infoEERT_v
FNDA:0,_ZNSt9_Any_data9_M_accessIPKSt9type_infoEERT_v
FN:90,_ZNSt9_Any_data9_M_accessIPZN33EventFlagTest_WaitMultiple_1_Test8TestBodyEvEUlvE_EERT_v
FNDA:0,_ZNSt9_Any_data9_M_accessIPZN33EventFlagTest_WaitMultiple_1_Test8TestBodyEvEUlvE_EERT_v
FN:95,_ZNKSt9_Any_data9_M_accessIZN33EventFlagTest_WaitMultiple_1_Test8TestBodyEvEUlvE_EERKT_v
FNDA:4,_ZNKSt9_Any_data9_M_accessIZN33EventFlagTest_WaitMultiple_1_Test8TestBodyEvEUlvE_EERKT_v
FN:134,_ZNSt14_Function_base13_Base_managerIZN33EventFlagTest_WaitMultiple_1_Test8TestBodyEvEUlvE_E14_M_get_pointerERKSt9_Any_data
FNDA:4,_ZNSt14_Function_base13_Base_managerIZN33EventFlagTest_WaitMultiple_1_Test8TestBodyEvEUlvE_E14_M_get_pointerERKSt9_Any_data
FN:150,_ZNSt14_Function_base13_Base_managerIZN33EventFlagTest_WaitMultiple_1_Test8TestBodyEvEUlvE_E9_M_createIRKS2_EEvRSt9_Any_dataOT_St17integral_constantIbLb1EE
FNDA:2,_ZNSt14_Function_base13_Base_managerIZN33EventFlagTest_WaitMultiple_1_Test8TestBodyEvEUlvE_E9_M_createIRKS2_EEvRSt9_Any_dataOT_St17integral_constantIbLb1EE
FN:150,_ZNSt14_Function_base13_Base_managerIZN33EventFlagTest_WaitMultiple_1_Test8TestBodyEvEUlvE_E9_M_createIS2_EEvRSt9_Any_dataOT_St17integral_constantIbLb1EE
FNDA:1,_ZNSt14_Function_base13_Base_managerIZN33EventFlagTest_WaitMultiple_1_Test8TestBodyEvEUlvE_E9_M_createIS2_EEvRSt9_Any_dataOT_St17integral_constantIbLb1EE
FN:166,_ZNSt14_Function_base13_Base_managerIZN33EventFlagTest_WaitMultiple_1_Test8TestBodyEvEUlvE_E10_M_destroyERSt9_Any_dataSt17integral_constantIbLb1EE
FNDA:3,_ZNSt14_Function_base13_Base_managerIZN33EventFlagTest_WaitMultiple_1_Test8TestBodyEvEUlvE_E10_M_destroyERSt9_Any_dataSt17integral_constantIbLb1EE
FN:180,_ZNSt14_Function_base13_Base_managerIZN33EventFlagTest_WaitMultiple_1_Test8TestBodyEvEUlvE_E10_M_managerERSt9_Any_dataRKS4_St18_Manager_operation
FNDA:5,_ZNSt14_Function_base13_Base_managerIZN33EventFlagTest_WaitMultiple_1_Test8TestBodyEvEUlvE_E10_M_managerERSt9_Any_dataRKS4_St18_Manager_operation
FN:211,_ZNSt14_Function_base13_Base_managerIZN33EventFlagTest_WaitMultiple_1_Test8TestBodyEvEUlvE_E15_M_init_functorIRKS2_EEvRSt9_Any_dataOT_
FNDA:2,_ZNSt14_Function_base13_Base_managerIZN33EventFlagTest_WaitMultiple_1_Test8TestBodyEvEUlvE_E15_M_init_functorIRKS2_EEvRSt9_Any_dataOT_
FN:211,_ZNSt14_Function_base13_Base_managerIZN33EventFlagTest_WaitMultiple_1_Test8TestBodyEvEUlvE_E15_M_init_functorIS2_EEvRSt9_Any_dataOT_
FNDA:1,_ZNSt14_Function_base13_Base_managerIZN33EventFlagTest_WaitMultiple_1_Test8TestBodyEvEUlvE_E15_M_init_functorIS2_EEvRSt9_Any_dataOT_
FN:235,_ZNSt14_Function_base13_Base_managerIZN33EventFlagTest_WaitMultiple_1_Test8TestBodyEvEUlvE_E21_M_not_empty_functionIS2_EEbRKT_
FNDA:1,_ZNSt14_Function_base13_Base_managerIZN33EventFlagTest_WaitMultiple_1_Test8TestBodyEvEUlvE_E21_M_not_empty_functionIS2_EEbRKT_
FN:239,_ZNSt14_Function_baseC2Ev
FNDA:3,_ZNSt14_Function_baseC2Ev
FN:241,_ZNSt14_Function_baseD2Ev
FNDA:3,_ZNSt14_Function_baseD2Ev
FN:247,_ZNKSt14_Function_base8_M_emptyEv
FNDA:4,_ZNKSt14_Function_base8_M_emptyEv
FN:267,_ZNSt17_Function_handlerIFvvEZN33EventFlagTest_WaitMultiple_1_Test8TestBodyEvEUlvE_E10_M_managerERSt9_Any_dataRKS4_St18_Manager_operation
FNDA:5,_ZNSt17_Function_handlerIFvvEZN33EventFlagTest_WaitMultiple_1_Test8TestBodyEvEUlvE_E10_M_managerERSt9_Any_dataRKS4_St18_Manager_operation
FN:288,_ZNSt17_Function_handlerIFvvEZN33EventFlagTest_WaitMultiple_1_Test8TestBodyEvEUlvE_E9_M_invokeERKSt9_Any_data
FNDA:2,_ZNSt17_Function_handlerIFvvEZN33EventFlagTest_WaitMultiple_1_Test8TestBodyEvEUlvE_E9_M_invokeERKSt9_Any_data
FN:386,_ZNSt8functionIFvvEEC2ERKS1_
FNDA:2,_ZNSt8functionIFvvEEC2ERKS1_
FN:435,_ZNSt8functionIFvvEEC2IZN33EventFlagTest_WaitMultiple_1_Test8TestBodyEvEUlvE_vEEOT_
FNDA:1,_ZNSt8functionIFvvEEC2IZN33EventFlagTest_WaitMultiple_1_Test8TestBodyEvEUlvE_vEEOT_
FN:572,_ZNKSt8functionIFvvEEcvbEv
FNDA:2,_ZNKSt8functionIFvvEEcvbEv
FN:586,_ZNKSt8functionIFvvEEclEv
FNDA:2,_ZNKSt8functionIFvvEEclEv
DA:85,6
DA:86,4
DA:90,3
DA:91,3
DA:90,0
DA:91,0
DA:90,0
DA:91,0
DA:95,4
DA:96,4
DA:134,4
DA:138,4
DA:139,4
DA:150,2
DA:152,2
DA:153,2
DA:150,1
DA:152,1
DA:153,1
DA:166,3
DA:168,3
DA:169,3
DA:180,5
DA:183,5
DA:185,0
DA:187,0
DA:191,0
DA:193,0
DA:194,0
DA:195,0
DA:197,2
DA:198,2
DA:199,2
DA:200,2
DA:202,3
DA:203,3
DA:204,3
DA:206,5
DA:211,2
DA:215,2
DA:216,2
DA:211,1
DA:215,1
DA:216,1
DA:235,1
DA:236,1
DA:239,3
DA:241,3
DA:243,3
DA:244,3
DA:245,3
DA:247,4
DA:267,5
DA:270,5
DA:273,0
DA:274,0
DA:275,0
DA:277,0
DA:278,0
DA:279,0
DA:281,5
DA:282,5
DA:284,5
DA:288,2
DA:290,2
DA:291,2
DA:386,2
DA:387,2
DA:389,2
DA:391,2
DA:392,2
DA:393,2
DA:395,2
DA:435,1
DA:437,1
DA:447,1
DA:449,1
DA:451,1
DA:452,1
DA:454,1
DA:572,2
DA:573,2
DA:586,2
DA:588,2
DA:589,0
DA:590,2
end_of_record
SF:/usr/include/c++/11/compare
FN:59,_ZNSt9__cmp_cat8__unspecC2EPS0_
FNDA:11,_ZNSt9__cmp_cat8__unspecC2EPS0_
FN:264,_ZStltSt15strong_orderingNSt9__cmp_cat8__unspecE
FNDA:11,_ZStltSt15strong_orderingNSt9__cmp_cat8__unspecE
DA:59,11
DA:264,11
DA:265,11
end_of_record
