TN:
SF:/home/atohs/cpp/CppLearning/build/_deps/googletest-src/googletest/include/gtest/gtest-message.h
end_of_record
SF:/home/atohs/cpp/CppLearning/build/_deps/googletest-src/googletest/include/gtest/gtest-printers.h
FN:245,_ZN7testing8internal52internal_stream_operator_without_lexical_name_lookup13StreamPrinter10PrintValueIivEEDTcvvlsdefp0_fp_ERKT_PSo
FNDA:0,_ZN7testing8internal52internal_stream_operator_without_lexical_name_lookup13StreamPrinter10PrintValueIivEEDTcvvlsdefp0_fp_ERKT_PSo
FN:349,_ZN7testing8internal17PrintWithFallbackIiEEvRKT_PSo
FNDA:0,_ZN7testing8internal17PrintWithFallbackIiEEvRKT_PSo
FN:380,_ZN7testing8internal19FormatForComparisonIbbE6FormatB5cxx11ERKb
FNDA:0,_ZN7testing8internal19FormatForComparisonIbbE6FormatB5cxx11ERKb
FN:380,_ZN7testing8internal19FormatForComparisonIiiE6FormatB5cxx11ERKi
FNDA:0,_ZN7testing8internal19FormatForComparisonIiiE6FormatB5cxx11ERKi
FN:460,_ZN7testing8internal33FormatForComparisonFailureMessageIbbEENSt7__cxx1112basic_stringIcSt11char_traitsIcESaIcEEERKT_RKT0_
FNDA:0,_ZN7testing8internal33FormatForComparisonFailureMessageIbbEENSt7__cxx1112basic_stringIcSt11char_traitsIcESaIcEEERKT_RKT0_
FN:460,_ZN7testing8internal33FormatForComparisonFailureMessageIiiEENSt7__cxx1112basic_stringIcSt11char_traitsIcESaIcEEERKT_RKT0_
FNDA:0,_ZN7testing8internal33FormatForComparisonFailureMessageIiiEENSt7__cxx1112basic_stringIcSt11char_traitsIcESaIcEEERKT_RKT0_
FN:487,_ZN7testing8internal7PrintToIiEEvRKT_PSo
FNDA:0,_ZN7testing8internal7PrintToIiEEvRKT_PSo
FN:506,_ZN7testing8internal7PrintToEbPSo
FNDA:0,_ZN7testing8internal7PrintToEbPSo
FN:836,_ZN7testing8internal16UniversalPrinterIbE5PrintERKbPSo
FNDA:0,_ZN7testing8internal16UniversalPrinterIbE5PrintERKbPSo
FN:836,_ZN7testing8internal16UniversalPrinterIiE5PrintERKiPSo
FNDA:0,_ZN7testing8internal16UniversalPrinterIiE5PrintERKiPSo
FN:1026,_ZN7testing8internal21UniversalTersePrinterIbE5PrintERKbPSo
FNDA:0,_ZN7testing8internal21UniversalTersePrinterIbE5PrintERKbPSo
FN:1026,_ZN7testing8internal21UniversalTersePrinterIiE5PrintERKiPSo
FNDA:0,_ZN7testing8internal21UniversalTersePrinterIiE5PrintERKiPSo
FN:1145,_ZN7testing8internal14UniversalPrintIbEEvRKT_PSo
FNDA:0,_ZN7testing8internal14UniversalPrintIbEEvRKT_PSo
FN:1145,_ZN7testing8internal14UniversalPrintIiEEvRKT_PSo
FNDA:0,_ZN7testing8internal14UniversalPrintIiEEvRKT_PSo
FN:1185,_ZN7testing13PrintToStringIbEENSt7__cxx1112basic_stringIcSt11char_traitsIcESaIcEEERKT_
FNDA:0,_ZN7testing13PrintToStringIbEENSt7__cxx1112basic_stringIcSt11char_traitsIcESaIcEEERKT_
FN:1185,_ZN7testing13PrintToStringIiEENSt7__cxx1112basic_stringIcSt11char_traitsIcESaIcEEERKT_
FNDA:0,_ZN7testing13PrintToStringIiEENSt7__cxx1112basic_stringIcSt11char_traitsIcESaIcEEERKT_
DA:245,0
DA:249,0
DA:250,0
DA:349,0
DA:359,0
DA:360,0
DA:380,0
DA:381,0
DA:380,0
DA:381,0
DA:460,0
DA:462,0
DA:460,0
DA:462,0
DA:487,0
DA:488,0
DA:489,0
DA:506,0
DA:507,0
DA:508,0
DA:836,0
DA:845,0
DA:846,0
DA:836,0
DA:845,0
DA:846,0
DA:1026,0
DA:1027,0
DA:1028,0
DA:1026,0
DA:1027,0
DA:1028,0
DA:1145,0
DA:1149,0
DA:1150,0
DA:1145,0
DA:1149,0
DA:1150,0
DA:1185,0
DA:1186,0
DA:1187,0
DA:1188,0
DA:1189,0
DA:1185,0
DA:1186,0
DA:1187,0
DA:1188,0
DA:1189,0
end_of_record
SF:/usr/include/c++/11/bits/ptr_traits.h
FN:149,_ZNSt14pointer_traitsIPKcE10pointer_toERS0_
FNDA:348,_ZNSt14pointer_traitsIPKcE10pointer_toERS0_
FN:149,_ZNSt14pointer_traitsIPcE10pointer_toERc
FNDA:176,_ZNSt14pointer_traitsIPcE10pointer_toERc
DA:149,348
DA:150,348
DA:149,176
DA:150,176
end_of_record
SF:/usr/include/c++/11/bits/basic_string.tcc
FN:132,_ZNSt7__cxx1112basic_stringIcSt11char_traitsIcESaIcEE9_M_createERmm
FNDA:115,_ZNSt7__cxx1112basic_stringIcSt11char_traitsIcESaIcEE9_M_createERmm
FN:206,_ZNSt7__cxx1112basic_stringIcSt11char_traitsIcESaIcEE12_M_constructIPKcEEvT_S8_St20forward_iterator_tag
FNDA:40,_ZNSt7__cxx1112basic_stringIcSt11char_traitsIcESaIcEE12_M_constructIPKcEEvT_S8_St20forward_iterator_tag
DA:132,115
DA:137,115
DA:138,0
DA:143,115
DA:145,40
DA:147,40
DA:148,0
DA:153,115
DA:206,40
DA:211,40
DA:212,0
DA:215,40
DA:217,40
DA:219,11
DA:220,11
DA:225,40
DA:232,40
DA:233,40
end_of_record
SF:/usr/include/c++/11/type_traits
FN:3419,_ZSt21is_constant_evaluatedv
FNDA:309,_ZSt21is_constant_evaluatedv
DA:3419,309
DA:3420,309
end_of_record
SF:/usr/include/c++/11/bits/invoke.h
FN:60,_ZSt13__invoke_implIvZN30AsyncQueueTest_UseThread1_Test8TestBodyEvEUlvE_JEET_St14__invoke_otherOT0_DpOT1_
FNDA:1,_ZSt13__invoke_implIvZN30AsyncQueueTest_UseThread1_Test8TestBodyEvEUlvE_JEET_St14__invoke_otherOT0_DpOT1_
FN:60,_ZSt13__invoke_implIvZN30AsyncQueueTest_UseThread1_Test8TestBodyEvEUlvE0_JEET_St14__invoke_otherOT0_DpOT1_
FNDA:1,_ZSt13__invoke_implIvZN30AsyncQueueTest_UseThread1_Test8TestBodyEvEUlvE0_JEET_St14__invoke_otherOT0_DpOT1_
FN:60,_ZSt13__invoke_implIvZN30AsyncQueueTest_UseThread2_Test8TestBodyEvEUlvE_JEET_St14__invoke_otherOT0_DpOT1_
FNDA:1,_ZSt13__invoke_implIvZN30AsyncQueueTest_UseThread2_Test8TestBodyEvEUlvE_JEET_St14__invoke_otherOT0_DpOT1_
FN:60,_ZSt13__invoke_implIvZN30AsyncQueueTest_UseThread2_Test8TestBodyEvEUlvE0_JEET_St14__invoke_otherOT0_DpOT1_
FNDA:1,_ZSt13__invoke_implIvZN30AsyncQueueTest_UseThread2_Test8TestBodyEvEUlvE0_JEET_St14__invoke_otherOT0_DpOT1_
FN:90,_ZSt8__invokeIZN30AsyncQueueTest_UseThread1_Test8TestBodyEvEUlvE_JEENSt15__invoke_resultIT_JDpT0_EE4typeEOS3_DpOS4_
FNDA:1,_ZSt8__invokeIZN30AsyncQueueTest_UseThread1_Test8TestBodyEvEUlvE_JEENSt15__invoke_resultIT_JDpT0_EE4typeEOS3_DpOS4_
FN:90,_ZSt8__invokeIZN30AsyncQueueTest_UseThread1_Test8TestBodyEvEUlvE0_JEENSt15__invoke_resultIT_JDpT0_EE4typeEOS3_DpOS4_
FNDA:1,_ZSt8__invokeIZN30AsyncQueueTest_UseThread1_Test8TestBodyEvEUlvE0_JEENSt15__invoke_resultIT_JDpT0_EE4typeEOS3_DpOS4_
FN:90,_ZSt8__invokeIZN30AsyncQueueTest_UseThread2_Test8TestBodyEvEUlvE_JEENSt15__invoke_resultIT_JDpT0_EE4typeEOS3_DpOS4_
FNDA:1,_ZSt8__invokeIZN30AsyncQueueTest_UseThread2_Test8TestBodyEvEUlvE_JEENSt15__invoke_resultIT_JDpT0_EE4typeEOS3_DpOS4_
FN:90,_ZSt8__invokeIZN30AsyncQueueTest_UseThread2_Test8TestBodyEvEUlvE0_JEENSt15__invoke_resultIT_JDpT0_EE4typeEOS3_DpOS4_
FNDA:1,_ZSt8__invokeIZN30AsyncQueueTest_UseThread2_Test8TestBodyEvEUlvE0_JEENSt15__invoke_resultIT_JDpT0_EE4typeEOS3_DpOS4_
DA:60,1
DA:61,1
DA:60,1
DA:61,1
DA:60,1
DA:61,1
DA:60,1
DA:61,1
DA:90,1
DA:96,1
DA:97,1
DA:90,1
DA:96,1
DA:97,1
DA:90,1
DA:96,1
DA:97,1
DA:90,1
DA:96,1
DA:97,1
end_of_record
SF:/usr/include/c++/11/bits/cpp_type_traits.h
FN:560,_ZSt12__miter_baseIPPiET_S2_
FNDA:0,_ZSt12__miter_baseIPPiET_S2_
FN:560,_ZSt12__miter_baseIPKcET_S2_
FNDA:0,_ZSt12__miter_baseIPKcET_S2_
DA:560,0
DA:561,0
DA:560,0
DA:561,0
end_of_record
SF:/usr/include/c++/11/bits/move.h
FN:49,_ZSt11__addressofIKcEPT_RS1_
FNDA:348,_ZSt11__addressofIKcEPT_RS1_
FN:49,_ZSt11__addressofISt5mutexEPT_RS1_
FNDA:6,_ZSt11__addressofISt5mutexEPT_RS1_
FN:49,_ZSt11__addressofIcEPT_RS0_
FNDA:176,_ZSt11__addressofIcEPT_RS0_
FN:77,_ZSt7forwardIKiEOT_RNSt16remove_referenceIS1_E4typeE
FNDA:3,_ZSt7forwardIKiEOT_RNSt16remove_referenceIS1_E4typeE
FN:77,_ZSt7forwardIRKiEOT_RNSt16remove_referenceIS2_E4typeE
FNDA:9,_ZSt7forwardIRKiEOT_RNSt16remove_referenceIS2_E4typeE
FN:77,_ZSt7forwardIZN30AsyncQueueTest_UseThread2_Test8TestBodyEvEUlvE0_EOT_RNSt16remove_referenceIS2_E4typeE
FNDA:9,_ZSt7forwardIZN30AsyncQueueTest_UseThread2_Test8TestBodyEvEUlvE0_EOT_RNSt16remove_referenceIS2_E4typeE
FN:77,_ZSt7forwardIZN30AsyncQueueTest_UseThread2_Test8TestBodyEvEUlvE_EOT_RNSt16remove_referenceIS2_E4typeE
FNDA:9,_ZSt7forwardIZN30AsyncQueueTest_UseThread2_Test8TestBodyEvEUlvE_EOT_RNSt16remove_referenceIS2_E4typeE
FN:77,_ZSt7forwardIZN30AsyncQueueTest_UseThread1_Test8TestBodyEvEUlvE0_EOT_RNSt16remove_referenceIS2_E4typeE
FNDA:9,_ZSt7forwardIZN30AsyncQueueTest_UseThread1_Test8TestBodyEvEUlvE0_EOT_RNSt16remove_referenceIS2_E4typeE
FN:77,_ZSt7forwardIZN30AsyncQueueTest_UseThread1_Test8TestBodyEvEUlvE_EOT_RNSt16remove_referenceIS2_E4typeE
FNDA:9,_ZSt7forwardIZN30AsyncQueueTest_UseThread1_Test8TestBodyEvEUlvE_EOT_RNSt16remove_referenceIS2_E4typeE
FN:104,_ZSt4moveIRNSt7__cxx1112basic_stringIcSt11char_traitsIcESaIcEEEEONSt16remove_referenceIT_E4typeEOS8_
FNDA:75,_ZSt4moveIRNSt7__cxx1112basic_stringIcSt11char_traitsIcESaIcEEEEONSt16remove_referenceIT_E4typeEOS8_
FN:104,_ZSt4moveIRSt5tupleIJZN30AsyncQueueTest_UseThread1_Test8TestBodyEvEUlvE_EEEONSt16remove_referenceIT_E4typeEOS6_
FNDA:1,_ZSt4moveIRSt5tupleIJZN30AsyncQueueTest_UseThread1_Test8TestBodyEvEUlvE_EEEONSt16remove_referenceIT_E4typeEOS6_
FN:104,_ZSt4moveIRKiEONSt16remove_referenceIT_E4typeEOS3_
FNDA:2,_ZSt4moveIRKiEONSt16remove_referenceIT_E4typeEOS3_
FN:104,_ZSt4moveIRSaIcEEONSt16remove_referenceIT_E4typeEOS3_
FNDA:142,_ZSt4moveIRSaIcEEONSt16remove_referenceIT_E4typeEOS3_
FN:104,_ZSt4moveIRPNSt7__cxx1118basic_stringstreamIcSt11char_traitsIcESaIcEEEEONSt16remove_referenceIT_E4typeEOS9_
FNDA:58,_ZSt4moveIRPNSt7__cxx1118basic_stringstreamIcSt11char_traitsIcESaIcEEEEONSt16remove_referenceIT_E4typeEOS9_
FN:104,_ZSt4moveIRPNSt7__cxx1112basic_stringIcSt11char_traitsIcESaIcEEEEONSt16remove_referenceIT_E4typeEOS9_
FNDA:0,_ZSt4moveIRPNSt7__cxx1112basic_stringIcSt11char_traitsIcESaIcEEEEONSt16remove_referenceIT_E4typeEOS9_
FN:104,_ZSt4moveIRiEONSt16remove_referenceIT_E4typeEOS2_
FNDA:15,_ZSt4moveIRiEONSt16remove_referenceIT_E4typeEOS2_
FN:104,_ZSt4moveIRPNSt6thread6_StateEEONSt16remove_referenceIT_E4typeEOS5_
FNDA:0,_ZSt4moveIRPNSt6thread6_StateEEONSt16remove_referenceIT_E4typeEOS5_
FN:104,_ZSt4moveIRZN10AsyncQueueIiE9_TimedPopEPiNSt6chrono8durationIlSt5ratioILl1ELl1000EEEEEUlvE0_EONSt16remove_referenceIT_E4typeEOSB_
FNDA:3,_ZSt4moveIRZN10AsyncQueueIiE9_TimedPopEPiNSt6chrono8durationIlSt5ratioILl1ELl1000EEEEEUlvE0_EONSt16remove_referenceIT_E4typeEOSB_
FN:104,_ZSt4moveIRSt5tupleIJZN30AsyncQueueTest_UseThread2_Test8TestBodyEvEUlvE0_EEEONSt16remove_referenceIT_E4typeEOS6_
FNDA:1,_ZSt4moveIRSt5tupleIJZN30AsyncQueueTest_UseThread2_Test8TestBodyEvEUlvE0_EEEONSt16remove_referenceIT_E4typeEOS6_
FN:104,_ZSt4moveIRSt5tupleIJZN30AsyncQueueTest_UseThread2_Test8TestBodyEvEUlvE_EEEONSt16remove_referenceIT_E4typeEOS6_
FNDA:1,_ZSt4moveIRSt5tupleIJZN30AsyncQueueTest_UseThread2_Test8TestBodyEvEUlvE_EEEONSt16remove_referenceIT_E4typeEOS6_
FN:104,_ZSt4moveIRSt5tupleIJZN30AsyncQueueTest_UseThread1_Test8TestBodyEvEUlvE0_EEEONSt16remove_referenceIT_E4typeEOS6_
FNDA:1,_ZSt4moveIRSt5tupleIJZN30AsyncQueueTest_UseThread1_Test8TestBodyEvEUlvE0_EEEONSt16remove_referenceIT_E4typeEOS6_
FN:145,_ZSt9addressofIcEPT_RS0_
FNDA:176,_ZSt9addressofIcEPT_RS0_
FN:145,_ZSt9addressofIKcEPT_RS1_
FNDA:348,_ZSt9addressofIKcEPT_RS1_
DA:49,348
DA:50,348
DA:49,176
DA:50,176
DA:49,6
DA:50,6
DA:77,3
DA:78,3
DA:77,9
DA:78,9
DA:77,9
DA:78,9
DA:77,9
DA:78,9
DA:77,9
DA:78,9
DA:77,9
DA:78,9
DA:104,1
DA:105,1
DA:104,1
DA:105,1
DA:104,1
DA:105,1
DA:104,1
DA:105,1
DA:104,3
DA:105,3
DA:104,0
DA:105,0
DA:104,15
DA:105,15
DA:104,0
DA:105,0
DA:104,58
DA:105,58
DA:104,142
DA:105,142
DA:104,2
DA:105,2
DA:104,75
DA:105,75
DA:145,348
DA:146,348
DA:145,176
DA:146,176
end_of_record
SF:/home/atohs/cpp/CppLearning/build/_deps/googletest-src/googletest/include/gtest/gtest.h
FN:257,_ZN7testing4Test14SetUpTestSuiteEv
FNDA:0,_ZN7testing4Test14SetUpTestSuiteEv
FN:265,_ZN7testing4Test17TearDownTestSuiteEv
FNDA:0,_ZN7testing4Test17TearDownTestSuiteEv
FN:270,_ZN7testing4Test16TearDownTestCaseEv
FNDA:0,_ZN7testing4Test16TearDownTestCaseEv
FN:271,_ZN7testing4Test13SetUpTestCaseEv
FNDA:0,_ZN7testing4Test13SetUpTestCaseEv
FN:358,_ZN7testing4Test5SetupEv
FNDA:0,_ZN7testing4Test5SetupEv
FN:1376,_ZN7testing8internal18CmpHelperEQFailureIbbEENS_15AssertionResultEPKcS4_RKT_RKT0_
FNDA:0,_ZN7testing8internal18CmpHelperEQFailureIbbEENS_15AssertionResultEPKcS4_RKT_RKT0_
FN:1376,_ZN7testing8internal18CmpHelperEQFailureIiiEENS_15AssertionResultEPKcS4_RKT_RKT0_
FNDA:0,_ZN7testing8internal18CmpHelperEQFailureIiiEENS_15AssertionResultEPKcS4_RKT_RKT0_
FN:1393,_ZN7testing8internal11CmpHelperEQIbbEENS_15AssertionResultEPKcS4_RKT_RKT0_
FNDA:3,_ZN7testing8internal11CmpHelperEQIbbEENS_15AssertionResultEPKcS4_RKT_RKT0_
FN:1393,_ZN7testing8internal11CmpHelperEQIiiEENS_15AssertionResultEPKcS4_RKT_RKT0_
FNDA:5,_ZN7testing8internal11CmpHelperEQIiiEENS_15AssertionResultEPKcS4_RKT_RKT0_
FN:1412,_ZN7testing8internal8EqHelper7CompareIbbLPv0EEENS_15AssertionResultEPKcS6_RKT_RKT0_
FNDA:3,_ZN7testing8internal8EqHelper7CompareIbbLPv0EEENS_15AssertionResultEPKcS6_RKT_RKT0_
FN:1412,_ZN7testing8internal8EqHelper7CompareIiiLPv0EEENS_15AssertionResultEPKcS6_RKT_RKT0_
FNDA:5,_ZN7testing8internal8EqHelper7CompareIiiLPv0EEENS_15AssertionResultEPKcS6_RKT_RKT0_
DA:257,0
DA:265,0
DA:270,0
DA:271,0
DA:358,0
DA:1376,0
DA:1381,0
DA:1376,0
DA:1381,0
DA:1393,3
DA:1396,3
DA:1397,3
DA:1400,0
DA:1393,5
DA:1396,5
DA:1397,5
DA:1400,0
DA:1412,3
DA:1415,3
DA:1412,5
DA:1415,5
end_of_record
SF:/home/atohs/cpp/CppLearning/include/AsyncQueue.h
FN:15,_ZN10AsyncQueueIiE9_TimedPopEPiNSt6chrono8durationIlSt5ratioILl1ELl1000EEEE
FNDA:6,_ZN10AsyncQueueIiE9_TimedPopEPiNSt6chrono8durationIlSt5ratioILl1ELl1000EEEE
FN:18,_ZZN10AsyncQueueIiE9_TimedPopEPiNSt6chrono8durationIlSt5ratioILl1ELl1000EEEEENKUlvE_clEv
FNDA:3,_ZZN10AsyncQueueIiE9_TimedPopEPiNSt6chrono8durationIlSt5ratioILl1ELl1000EEEEENKUlvE_clEv
FN:22,_ZZN10AsyncQueueIiE9_TimedPopEPiNSt6chrono8durationIlSt5ratioILl1ELl1000EEEEENKUlvE0_clEv
FNDA:5,_ZZN10AsyncQueueIiE9_TimedPopEPiNSt6chrono8durationIlSt5ratioILl1ELl1000EEEEENKUlvE0_clEv
FN:34,_ZN10AsyncQueueIiEC2Ev
FNDA:6,_ZN10AsyncQueueIiEC2Ev
FN:36,_ZN10AsyncQueueIiE4PushERKi
FNDA:3,_ZN10AsyncQueueIiE4PushERKi
FN:42,_ZN10AsyncQueueIiE4PushEOKi
FNDA:1,_ZN10AsyncQueueIiE4PushEOKi
FN:48,_ZN10AsyncQueueIiE7EmplaceERKi
FNDA:1,_ZN10AsyncQueueIiE7EmplaceERKi
FN:57,_ZN10AsyncQueueIiE3PopEv
FNDA:3,_ZN10AsyncQueueIiE3PopEv
FN:63,_ZN10AsyncQueueIiE8TimedPopEPiNSt6chrono8durationIlSt5ratioILl1ELl1000EEEE
FNDA:6,_ZN10AsyncQueueIiE8TimedPopEPiNSt6chrono8durationIlSt5ratioILl1ELl1000EEEE
DA:15,6
DA:16,6
DA:17,6
DA:18,3
DA:19,3
DA:22,3
DA:23,5
DA:25,3
DA:26,1
DA:29,5
DA:30,5
DA:31,5
DA:32,6
DA:34,6
DA:36,3
DA:37,3
DA:38,3
DA:39,3
DA:40,6
DA:42,1
DA:43,1
DA:44,1
DA:45,1
DA:46,2
DA:48,1
DA:49,1
DA:50,1
DA:57,3
DA:58,3
DA:59,3
DA:60,3
DA:63,6
DA:64,6
DA:65,0
DA:67,6
end_of_record
SF:/usr/include/c++/11/bits/stl_algobase.h
FN:230,_ZSt3minImERKT_S2_S2_
FNDA:39,_ZSt3minImERKT_S2_S2_
FN:254,_ZSt3maxImERKT_S2_S2_
FNDA:24,_ZSt3maxImERKT_S2_S2_
FN:313,_ZSt12__niter_baseIPcET_S1_
FNDA:0,_ZSt12__niter_baseIPcET_S1_
FN:313,_ZSt12__niter_baseIPKcET_S2_
FNDA:0,_ZSt12__niter_baseIPKcET_S2_
FN:313,_ZSt12__niter_baseIPPiET_S2_
FNDA:0,_ZSt12__niter_baseIPPiET_S2_
FN:335,_ZSt12__niter_wrapIPPiET_RKS2_S2_
FNDA:0,_ZSt12__niter_wrapIPPiET_RKS2_S2_
FN:335,_ZSt12__niter_wrapIPcET_RKS1_S1_
FNDA:0,_ZSt12__niter_wrapIPcET_RKS1_S1_
FN:380,_ZNSt11__copy_moveILb0ELb0ESt26random_access_iterator_tagE8__copy_mIPPiS4_EET0_T_S6_S5_
FNDA:0,_ZNSt11__copy_moveILb0ELb0ESt26random_access_iterator_tagE8__copy_mIPPiS4_EET0_T_S6_S5_
FN:380,_ZNSt11__copy_moveILb0ELb0ESt26random_access_iterator_tagE8__copy_mIPKcPcEET0_T_S7_S6_
FNDA:0,_ZNSt11__copy_moveILb0ELb0ESt26random_access_iterator_tagE8__copy_mIPKcPcEET0_T_S7_S6_
FN:420,_ZNSt11__copy_moveILb0ELb1ESt26random_access_iterator_tagE8__copy_mIPiEEPT_PKS4_S7_S5_
FNDA:0,_ZNSt11__copy_moveILb0ELb1ESt26random_access_iterator_tagE8__copy_mIPiEEPT_PKS4_S7_S5_
FN:420,_ZNSt11__copy_moveILb0ELb1ESt26random_access_iterator_tagE8__copy_mIcEEPT_PKS3_S6_S4_
FNDA:0,_ZNSt11__copy_moveILb0ELb1ESt26random_access_iterator_tagE8__copy_mIcEEPT_PKS3_S6_S4_
FN:486,_ZSt14__copy_move_a2ILb0EPPiS1_ET1_T0_S3_S2_
FNDA:0,_ZSt14__copy_move_a2ILb0EPPiS1_ET1_T0_S3_S2_
FN:486,_ZSt14__copy_move_a2ILb0EPKcPcET1_T0_S4_S3_
FNDA:0,_ZSt14__copy_move_a2ILb0EPKcPcET1_T0_S4_S3_
FN:521,_ZSt14__copy_move_a1ILb0EPPiS1_ET1_T0_S3_S2_
FNDA:0,_ZSt14__copy_move_a1ILb0EPPiS1_ET1_T0_S3_S2_
FN:521,_ZSt14__copy_move_a1ILb0EPKcPcET1_T0_S4_S3_
FNDA:0,_ZSt14__copy_move_a1ILb0EPKcPcET1_T0_S4_S3_
FN:527,_ZSt13__copy_move_aILb0EPKcPcET1_T0_S4_S3_
FNDA:0,_ZSt13__copy_move_aILb0EPKcPcET1_T0_S4_S3_
FN:527,_ZSt13__copy_move_aILb0EPPiS1_ET1_T0_S3_S2_
FNDA:0,_ZSt13__copy_move_aILb0EPPiS1_ET1_T0_S3_S2_
FN:611,_ZSt4copyIPKcPcET0_T_S4_S3_
FNDA:0,_ZSt4copyIPKcPcET0_T_S4_S3_
FN:611,_ZSt4copyIPPiS1_ET0_T_S3_S2_
FNDA:0,_ZSt4copyIPPiS1_ET0_T_S3_S2_
FN:697,_ZNSt20__copy_move_backwardILb0ELb0ESt26random_access_iterator_tagE13__copy_move_bIPPiS4_EET0_T_S6_S5_
FNDA:0,_ZNSt20__copy_move_backwardILb0ELb0ESt26random_access_iterator_tagE13__copy_move_bIPPiS4_EET0_T_S6_S5_
FN:731,_ZNSt20__copy_move_backwardILb0ELb1ESt26random_access_iterator_tagE13__copy_move_bIPiEEPT_PKS4_S7_S5_
FNDA:0,_ZNSt20__copy_move_backwardILb0ELb1ESt26random_access_iterator_tagE13__copy_move_bIPiEEPT_PKS4_S7_S5_
FN:750,_ZSt23__copy_move_backward_a2ILb0EPPiS1_ET1_T0_S3_S2_
FNDA:0,_ZSt23__copy_move_backward_a2ILb0EPPiS1_ET1_T0_S3_S2_
FN:768,_ZSt23__copy_move_backward_a1ILb0EPPiS1_ET1_T0_S3_S2_
FNDA:0,_ZSt23__copy_move_backward_a1ILb0EPPiS1_ET1_T0_S3_S2_
FN:796,_ZSt22__copy_move_backward_aILb0EPPiS1_ET1_T0_S3_S2_
FNDA:0,_ZSt22__copy_move_backward_aILb0EPPiS1_ET1_T0_S3_S2_
FN:848,_ZSt13copy_backwardIPPiS1_ET0_T_S3_S2_
FNDA:0,_ZSt13copy_backwardIPPiS1_ET0_T_S3_S2_
DA:230,39
DA:235,39
DA:236,0
DA:237,39
DA:254,24
DA:259,24
DA:260,10
DA:261,14
DA:313,0
DA:315,0
DA:313,0
DA:315,0
DA:313,0
DA:315,0
DA:335,0
DA:336,0
DA:335,0
DA:336,0
DA:380,0
DA:383,0
DA:385,0
DA:386,0
DA:387,0
DA:389,0
DA:380,0
DA:383,0
DA:385,0
DA:386,0
DA:387,0
DA:389,0
DA:420,0
DA:429,0
DA:430,0
DA:431,0
DA:432,0
DA:420,0
DA:429,0
DA:430,0
DA:431,0
DA:432,0
DA:486,0
DA:490,0
DA:492,0
DA:495,0
DA:486,0
DA:490,0
DA:492,0
DA:495,0
DA:521,0
DA:522,0
DA:521,0
DA:522,0
DA:527,0
DA:529,0
DA:532,0
DA:527,0
DA:529,0
DA:532,0
DA:611,0
DA:620,0
DA:611,0
DA:620,0
DA:697,0
DA:700,0
DA:701,0
DA:702,0
DA:703,0
DA:731,0
DA:740,0
DA:741,0
DA:742,0
DA:743,0
DA:750,0
DA:754,0
DA:756,0
DA:760,0
DA:762,0
DA:768,0
DA:769,0
DA:796,0
DA:798,0
DA:801,0
DA:848,0
DA:859,0
end_of_record
SF:/usr/include/c++/11/bits/deque.tcc
FN:164,_ZNSt5dequeIiSaIiEE12emplace_backIJKiEEERiDpOT_
FNDA:1,_ZNSt5dequeIiSaIiEE12emplace_backIJKiEEERiDpOT_
FN:164,_ZNSt5dequeIiSaIiEE12emplace_backIJRKiEEERiDpOT_
FNDA:1,_ZNSt5dequeIiSaIiEE12emplace_backIJRKiEEERiDpOT_
FN:484,_ZNSt5dequeIiSaIiEE16_M_push_back_auxIJKiEEEvDpOT_
FNDA:0,_ZNSt5dequeIiSaIiEE16_M_push_back_auxIJKiEEEvDpOT_
FN:484,_ZNSt5dequeIiSaIiEE16_M_push_back_auxIJRKiEEEvDpOT_
FNDA:0,_ZNSt5dequeIiSaIiEE16_M_push_back_auxIJRKiEEEvDpOT_
FN:576,_ZNSt5dequeIiSaIiEE16_M_pop_front_auxEv
FNDA:0,_ZNSt5dequeIiSaIiEE16_M_pop_front_auxEv
FN:931,_ZNSt5dequeIiSaIiEE17_M_reallocate_mapEmb
FNDA:0,_ZNSt5dequeIiSaIiEE17_M_reallocate_mapEmb
DA:164,1
DA:167,1
DA:168,1
DA:170,1
DA:173,1
DA:176,0
DA:178,1
DA:164,1
DA:167,1
DA:168,1
DA:170,1
DA:173,1
DA:176,0
DA:178,1
DA:484,0
DA:492,0
DA:493,0
DA:496,0
DA:497,0
DA:501,0
DA:507,0
DA:509,0
DA:516,0
DA:484,0
DA:492,0
DA:493,0
DA:496,0
DA:497,0
DA:501,0
DA:507,0
DA:509,0
DA:516,0
DA:576,0
DA:579,0
DA:581,0
DA:582,0
DA:583,0
DA:584,0
DA:931,0
DA:934,0
DA:935,0
DA:936,0
DA:939,0
DA:941,0
DA:942,0
DA:943,0
DA:944,0
DA:945,0
DA:946,0
DA:949,0
DA:950,0
DA:951,0
DA:955,0
DA:956,0
DA:959,0
DA:960,0
DA:961,0
DA:962,0
DA:963,0
DA:965,0
DA:967,0
DA:968,0
DA:971,0
DA:972,0
DA:973,0
end_of_record
SF:/usr/include/c++/11/iostream
end_of_record
SF:/usr/include/c++/11/bits/std_mutex.h
FN:65,_ZNSt12__mutex_baseC2Ev
FNDA:6,_ZNSt12__mutex_baseC2Ev
FN:91,_ZNSt5mutexC2Ev
FNDA:6,_ZNSt5mutexC2Ev
FN:98,_ZNSt5mutex4lockEv
FNDA:10,_ZNSt5mutex4lockEv
FN:115,_ZNSt5mutex6unlockEv
FNDA:10,_ZNSt5mutex6unlockEv
FN:122,_ZNSt5mutex13native_handleEv
FNDA:2,_ZNSt5mutex13native_handleEv
FN:167,_ZNSt9__condvar10wait_untilERSt5mutexiR8timespec
FNDA:2,_ZNSt9__condvar10wait_untilERSt5mutexiR8timespec
FN:228,_ZNSt10lock_guardISt5mutexEC2ERS0_
FNDA:4,_ZNSt10lock_guardISt5mutexEC2ERS0_
FN:234,_ZNSt10lock_guardISt5mutexED2Ev
FNDA:4,_ZNSt10lock_guardISt5mutexED2Ev
DA:65,6
DA:91,6
DA:98,10
DA:100,10
DA:103,10
DA:104,0
DA:105,10
DA:115,10
DA:118,10
DA:119,10
DA:122,2
DA:123,2
DA:167,2
DA:169,2
DA:171,2
DA:228,4
DA:229,4
DA:234,4
DA:235,4
end_of_record
SF:/usr/include/c++/11/tuple
FN:80,_ZNSt10_Head_baseILm1ESt14default_deleteINSt6thread6_StateEELb1EEC2Ev
FNDA:4,_ZNSt10_Head_baseILm1ESt14default_deleteINSt6thread6_StateEELb1EEC2Ev
FN:124,_ZNSt10_Head_baseILm1ESt14default_deleteINSt7__cxx1112basic_stringIcSt11char_traitsIcESaIcEEEELb1EE7_M_headERS8_
FNDA:0,_ZNSt10_Head_baseILm1ESt14default_deleteINSt7__cxx1112basic_stringIcSt11char_traitsIcESaIcEEEELb1EE7_M_headERS8_
FN:124,_ZNSt10_Head_baseILm1ESt14default_deleteINSt7__cxx1118basic_stringstreamIcSt11char_traitsIcESaIcEEEELb1EE7_M_headERS8_
FNDA:58,_ZNSt10_Head_baseILm1ESt14default_deleteINSt7__cxx1118basic_stringstreamIcSt11char_traitsIcESaIcEEEELb1EE7_M_headERS8_
FN:124,_ZNSt10_Head_baseILm1ESt14default_deleteINSt6thread6_StateEELb1EE7_M_headERS4_
FNDA:0,_ZNSt10_Head_baseILm1ESt14default_deleteINSt6thread6_StateEELb1EE7_M_headERS4_
FN:189,_ZNSt10_Head_baseILm0EPNSt6thread6_StateELb0EEC2Ev
FNDA:4,_ZNSt10_Head_baseILm0EPNSt6thread6_StateELb0EEC2Ev
FN:199,_ZNSt10_Head_baseILm0EZN30AsyncQueueTest_UseThread1_Test8TestBodyEvEUlvE_Lb0EEC2IS1_EEOT_
FNDA:1,_ZNSt10_Head_baseILm0EZN30AsyncQueueTest_UseThread1_Test8TestBodyEvEUlvE_Lb0EEC2IS1_EEOT_
FN:199,_ZNSt10_Head_baseILm0EZN30AsyncQueueTest_UseThread1_Test8TestBodyEvEUlvE0_Lb0EEC2IS1_EEOT_
FNDA:1,_ZNSt10_Head_baseILm0EZN30AsyncQueueTest_UseThread1_Test8TestBodyEvEUlvE0_Lb0EEC2IS1_EEOT_
FN:199,_ZNSt10_Head_baseILm0EZN30AsyncQueueTest_UseThread2_Test8TestBodyEvEUlvE_Lb0EEC2IS1_EEOT_
FNDA:1,_ZNSt10_Head_baseILm0EZN30AsyncQueueTest_UseThread2_Test8TestBodyEvEUlvE_Lb0EEC2IS1_EEOT_
FN:199,_ZNSt10_Head_baseILm0EZN30AsyncQueueTest_UseThread2_Test8TestBodyEvEUlvE0_Lb0EEC2IS1_EEOT_
FNDA:1,_ZNSt10_Head_baseILm0EZN30AsyncQueueTest_UseThread2_Test8TestBodyEvEUlvE0_Lb0EEC2IS1_EEOT_
FN:233,_ZNSt10_Head_baseILm0EZN30AsyncQueueTest_UseThread1_Test8TestBodyEvEUlvE0_Lb0EE7_M_headERS2_
FNDA:1,_ZNSt10_Head_baseILm0EZN30AsyncQueueTest_UseThread1_Test8TestBodyEvEUlvE0_Lb0EE7_M_headERS2_
FN:233,_ZNSt10_Head_baseILm0EPNSt7__cxx1118basic_stringstreamIcSt11char_traitsIcESaIcEEELb0EE7_M_headERS7_
FNDA:116,_ZNSt10_Head_baseILm0EPNSt7__cxx1118basic_stringstreamIcSt11char_traitsIcESaIcEEELb0EE7_M_headERS7_
FN:233,_ZNSt10_Head_baseILm0EPNSt7__cxx1112basic_stringIcSt11char_traitsIcESaIcEEELb0EE7_M_headERS7_
FNDA:8,_ZNSt10_Head_baseILm0EPNSt7__cxx1112basic_stringIcSt11char_traitsIcESaIcEEELb0EE7_M_headERS7_
FN:233,_ZNSt10_Head_baseILm0EPNSt6thread6_StateELb0EE7_M_headERS3_
FNDA:8,_ZNSt10_Head_baseILm0EPNSt6thread6_StateELb0EE7_M_headERS3_
FN:233,_ZNSt10_Head_baseILm0EZN30AsyncQueueTest_UseThread2_Test8TestBodyEvEUlvE_Lb0EE7_M_headERS2_
FNDA:1,_ZNSt10_Head_baseILm0EZN30AsyncQueueTest_UseThread2_Test8TestBodyEvEUlvE_Lb0EE7_M_headERS2_
FN:233,_ZNSt10_Head_baseILm0EZN30AsyncQueueTest_UseThread2_Test8TestBodyEvEUlvE0_Lb0EE7_M_headERS2_
FNDA:1,_ZNSt10_Head_baseILm0EZN30AsyncQueueTest_UseThread2_Test8TestBodyEvEUlvE0_Lb0EE7_M_headERS2_
FN:233,_ZNSt10_Head_baseILm0EZN30AsyncQueueTest_UseThread1_Test8TestBodyEvEUlvE_Lb0EE7_M_headERS2_
FNDA:1,_ZNSt10_Head_baseILm0EZN30AsyncQueueTest_UseThread1_Test8TestBodyEvEUlvE_Lb0EE7_M_headERS2_
FN:236,_ZNSt10_Head_baseILm0EPNSt7__cxx1112basic_stringIcSt11char_traitsIcESaIcEEELb0EE7_M_headERKS7_
FNDA:0,_ZNSt10_Head_baseILm0EPNSt7__cxx1112basic_stringIcSt11char_traitsIcESaIcEEELb0EE7_M_headERKS7_
FN:268,_ZNSt11_Tuple_implILm0EJPNSt7__cxx1112basic_stringIcSt11char_traitsIcESaIcEEESt14default_deleteIS5_EEE7_M_headERS9_
FNDA:8,_ZNSt11_Tuple_implILm0EJPNSt7__cxx1112basic_stringIcSt11char_traitsIcESaIcEEESt14default_deleteIS5_EEE7_M_headERS9_
FN:268,_ZNSt11_Tuple_implILm0EJPNSt7__cxx1118basic_stringstreamIcSt11char_traitsIcESaIcEEESt14default_deleteIS5_EEE7_M_headERS9_
FNDA:116,_ZNSt11_Tuple_implILm0EJPNSt7__cxx1118basic_stringstreamIcSt11char_traitsIcESaIcEEESt14default_deleteIS5_EEE7_M_headERS9_
FN:268,_ZNSt11_Tuple_implILm0EJPNSt6thread6_StateESt14default_deleteIS1_EEE7_M_headERS5_
FNDA:8,_ZNSt11_Tuple_implILm0EJPNSt6thread6_StateESt14default_deleteIS1_EEE7_M_headERS5_
FN:271,_ZNSt11_Tuple_implILm0EJPNSt7__cxx1112basic_stringIcSt11char_traitsIcESaIcEEESt14default_deleteIS5_EEE7_M_headERKS9_
FNDA:0,_ZNSt11_Tuple_implILm0EJPNSt7__cxx1112basic_stringIcSt11char_traitsIcESaIcEEESt14default_deleteIS5_EEE7_M_headERKS9_
FN:279,_ZNSt11_Tuple_implILm0EJPNSt6thread6_StateESt14default_deleteIS1_EEEC2Ev
FNDA:4,_ZNSt11_Tuple_implILm0EJPNSt6thread6_StateESt14default_deleteIS1_EEEC2Ev
FN:424,_ZNSt11_Tuple_implILm1EJSt14default_deleteINSt7__cxx1118basic_stringstreamIcSt11char_traitsIcESaIcEEEEEE7_M_headERS8_
FNDA:58,_ZNSt11_Tuple_implILm1EJSt14default_deleteINSt7__cxx1118basic_stringstreamIcSt11char_traitsIcESaIcEEEEEE7_M_headERS8_
FN:424,_ZNSt11_Tuple_implILm0EJZN30AsyncQueueTest_UseThread1_Test8TestBodyEvEUlvE_EE7_M_headERS2_
FNDA:1,_ZNSt11_Tuple_implILm0EJZN30AsyncQueueTest_UseThread1_Test8TestBodyEvEUlvE_EE7_M_headERS2_
FN:424,_ZNSt11_Tuple_implILm0EJZN30AsyncQueueTest_UseThread1_Test8TestBodyEvEUlvE0_EE7_M_headERS2_
FNDA:1,_ZNSt11_Tuple_implILm0EJZN30AsyncQueueTest_UseThread1_Test8TestBodyEvEUlvE0_EE7_M_headERS2_
FN:424,_ZNSt11_Tuple_implILm0EJZN30AsyncQueueTest_UseThread2_Test8TestBodyEvEUlvE_EE7_M_headERS2_
FNDA:1,_ZNSt11_Tuple_implILm0EJZN30AsyncQueueTest_UseThread2_Test8TestBodyEvEUlvE_EE7_M_headERS2_
FN:424,_ZNSt11_Tuple_implILm0EJZN30AsyncQueueTest_UseThread2_Test8TestBodyEvEUlvE0_EE7_M_headERS2_
FNDA:1,_ZNSt11_Tuple_implILm0EJZN30AsyncQueueTest_UseThread2_Test8TestBodyEvEUlvE0_EE7_M_headERS2_
FN:424,_ZNSt11_Tuple_implILm1EJSt14default_deleteINSt6thread6_StateEEEE7_M_headERS4_
FNDA:0,_ZNSt11_Tuple_implILm1EJSt14default_deleteINSt6thread6_StateEEEE7_M_headERS4_
FN:424,_ZNSt11_Tuple_implILm1EJSt14default_deleteINSt7__cxx1112basic_stringIcSt11char_traitsIcESaIcEEEEEE7_M_headERS8_
FNDA:0,_ZNSt11_Tuple_implILm1EJSt14default_deleteINSt7__cxx1112basic_stringIcSt11char_traitsIcESaIcEEEEEE7_M_headERS8_
FN:430,_ZNSt11_Tuple_implILm1EJSt14default_deleteINSt6thread6_StateEEEEC2Ev
FNDA:4,_ZNSt11_Tuple_implILm1EJSt14default_deleteINSt6thread6_StateEEEEC2Ev
FN:440,_ZNSt11_Tuple_implILm0EJZN30AsyncQueueTest_UseThread2_Test8TestBodyEvEUlvE0_EEC2IS1_EEOT_
FNDA:1,_ZNSt11_Tuple_implILm0EJZN30AsyncQueueTest_UseThread2_Test8TestBodyEvEUlvE0_EEC2IS1_EEOT_
FN:440,_ZNSt11_Tuple_implILm0EJZN30AsyncQueueTest_UseThread2_Test8TestBodyEvEUlvE_EEC2IS1_EEOT_
FNDA:1,_ZNSt11_Tuple_implILm0EJZN30AsyncQueueTest_UseThread2_Test8TestBodyEvEUlvE_EEC2IS1_EEOT_
FN:440,_ZNSt11_Tuple_implILm0EJZN30AsyncQueueTest_UseThread1_Test8TestBodyEvEUlvE0_EEC2IS1_EEOT_
FNDA:1,_ZNSt11_Tuple_implILm0EJZN30AsyncQueueTest_UseThread1_Test8TestBodyEvEUlvE0_EEC2IS1_EEOT_
FN:440,_ZNSt11_Tuple_implILm0EJZN30AsyncQueueTest_UseThread1_Test8TestBodyEvEUlvE_EEC2IS1_EEOT_
FNDA:1,_ZNSt11_Tuple_implILm0EJZN30AsyncQueueTest_UseThread1_Test8TestBodyEvEUlvE_EEC2IS1_EEOT_
FN:742,_ZNSt5tupleIJZN30AsyncQueueTest_UseThread2_Test8TestBodyEvEUlvE0_EEC2IJS1_ELb1ELb1EEEDpOT_
FNDA:1,_ZNSt5tupleIJZN30AsyncQueueTest_UseThread2_Test8TestBodyEvEUlvE0_EEC2IJS1_ELb1ELb1EEEDpOT_
FN:742,_ZNSt5tupleIJZN30AsyncQueueTest_UseThread2_Test8TestBodyEvEUlvE_EEC2IJS1_ELb1ELb1EEEDpOT_
FNDA:1,_ZNSt5tupleIJZN30AsyncQueueTest_UseThread2_Test8TestBodyEvEUlvE_EEC2IJS1_ELb1ELb1EEEDpOT_
FN:742,_ZNSt5tupleIJZN30AsyncQueueTest_UseThread1_Test8TestBodyEvEUlvE0_EEC2IJS1_ELb1ELb1EEEDpOT_
FNDA:1,_ZNSt5tupleIJZN30AsyncQueueTest_UseThread1_Test8TestBodyEvEUlvE0_EEC2IJS1_ELb1ELb1EEEDpOT_
FN:742,_ZNSt5tupleIJZN30AsyncQueueTest_UseThread1_Test8TestBodyEvEUlvE_EEC2IJS1_ELb1ELb1EEEDpOT_
FNDA:1,_ZNSt5tupleIJZN30AsyncQueueTest_UseThread1_Test8TestBodyEvEUlvE_EEC2IJS1_ELb1ELb1EEEDpOT_
FN:1049,_ZNSt5tupleIJPNSt6thread6_StateESt14default_deleteIS1_EEEC2ILb1ELb1EEEv
FNDA:4,_ZNSt5tupleIJPNSt6thread6_StateESt14default_deleteIS1_EEEC2ILb1ELb1EEEv
FN:1377,_ZSt12__get_helperILm1ESt14default_deleteINSt7__cxx1118basic_stringstreamIcSt11char_traitsIcESaIcEEEEJEERT0_RSt11_Tuple_implIXT_EJS8_DpT1_EE
FNDA:58,_ZSt12__get_helperILm1ESt14default_deleteINSt7__cxx1118basic_stringstreamIcSt11char_traitsIcESaIcEEEEJEERT0_RSt11_Tuple_implIXT_EJS8_DpT1_EE
FN:1377,_ZSt12__get_helperILm0EPNSt7__cxx1112basic_stringIcSt11char_traitsIcESaIcEEEJSt14default_deleteIS5_EEERT0_RSt11_Tuple_implIXT_EJS9_DpT1_EE
FNDA:8,_ZSt12__get_helperILm0EPNSt7__cxx1112basic_stringIcSt11char_traitsIcESaIcEEEJSt14default_deleteIS5_EEERT0_RSt11_Tuple_implIXT_EJS9_DpT1_EE
FN:1377,_ZSt12__get_helperILm1ESt14default_deleteINSt7__cxx1112basic_stringIcSt11char_traitsIcESaIcEEEEJEERT0_RSt11_Tuple_implIXT_EJS8_DpT1_EE
FNDA:0,_ZSt12__get_helperILm1ESt14default_deleteINSt7__cxx1112basic_stringIcSt11char_traitsIcESaIcEEEEJEERT0_RSt11_Tuple_implIXT_EJS8_DpT1_EE
FN:1377,_ZSt12__get_helperILm0EPNSt6thread6_StateEJSt14default_deleteIS1_EEERT0_RSt11_Tuple_implIXT_EJS5_DpT1_EE
FNDA:8,_ZSt12__get_helperILm0EPNSt6thread6_StateEJSt14default_deleteIS1_EEERT0_RSt11_Tuple_implIXT_EJS5_DpT1_EE
FN:1377,_ZSt12__get_helperILm1ESt14default_deleteINSt6thread6_StateEEJEERT0_RSt11_Tuple_implIXT_EJS4_DpT1_EE
FNDA:0,_ZSt12__get_helperILm1ESt14default_deleteINSt6thread6_StateEEJEERT0_RSt11_Tuple_implIXT_EJS4_DpT1_EE
FN:1377,_ZSt12__get_helperILm0EZN30AsyncQueueTest_UseThread1_Test8TestBodyEvEUlvE_JEERT0_RSt11_Tuple_implIXT_EJS2_DpT1_EE
FNDA:1,_ZSt12__get_helperILm0EZN30AsyncQueueTest_UseThread1_Test8TestBodyEvEUlvE_JEERT0_RSt11_Tuple_implIXT_EJS2_DpT1_EE
FN:1377,_ZSt12__get_helperILm0EZN30AsyncQueueTest_UseThread1_Test8TestBodyEvEUlvE0_JEERT0_RSt11_Tuple_implIXT_EJS2_DpT1_EE
FNDA:1,_ZSt12__get_helperILm0EZN30AsyncQueueTest_UseThread1_Test8TestBodyEvEUlvE0_JEERT0_RSt11_Tuple_implIXT_EJS2_DpT1_EE
FN:1377,_ZSt12__get_helperILm0EZN30AsyncQueueTest_UseThread2_Test8TestBodyEvEUlvE_JEERT0_RSt11_Tuple_implIXT_EJS2_DpT1_EE
FNDA:1,_ZSt12__get_helperILm0EZN30AsyncQueueTest_UseThread2_Test8TestBodyEvEUlvE_JEERT0_RSt11_Tuple_implIXT_EJS2_DpT1_EE
FN:1377,_ZSt12__get_helperILm0EZN30AsyncQueueTest_UseThread2_Test8TestBodyEvEUlvE0_JEERT0_RSt11_Tuple_implIXT_EJS2_DpT1_EE
FNDA:1,_ZSt12__get_helperILm0EZN30AsyncQueueTest_UseThread2_Test8TestBodyEvEUlvE0_JEERT0_RSt11_Tuple_implIXT_EJS2_DpT1_EE
FN:1377,_ZSt12__get_helperILm0EPNSt7__cxx1118basic_stringstreamIcSt11char_traitsIcESaIcEEEJSt14default_deleteIS5_EEERT0_RSt11_Tuple_implIXT_EJS9_DpT1_EE
FNDA:116,_ZSt12__get_helperILm0EPNSt7__cxx1118basic_stringstreamIcSt11char_traitsIcESaIcEEEJSt14default_deleteIS5_EEERT0_RSt11_Tuple_implIXT_EJS9_DpT1_EE
FN:1382,_ZSt12__get_helperILm0EPNSt7__cxx1112basic_stringIcSt11char_traitsIcESaIcEEEJSt14default_deleteIS5_EEERKT0_RKSt11_Tuple_implIXT_EJS9_DpT1_EE
FNDA:0,_ZSt12__get_helperILm0EPNSt7__cxx1112basic_stringIcSt11char_traitsIcESaIcEEEJSt14default_deleteIS5_EEERKT0_RKSt11_Tuple_implIXT_EJS9_DpT1_EE
FN:1393,_ZSt3getILm1EJPNSt7__cxx1118basic_stringstreamIcSt11char_traitsIcESaIcEEESt14default_deleteIS5_EEERNSt13tuple_elementIXT_ESt5tupleIJDpT0_EEE4typeERSD_
FNDA:58,_ZSt3getILm1EJPNSt7__cxx1118basic_stringstreamIcSt11char_traitsIcESaIcEEESt14default_deleteIS5_EEERNSt13tuple_elementIXT_ESt5tupleIJDpT0_EEE4typeERSD_
FN:1393,_ZSt3getILm1EJPNSt7__cxx1112basic_stringIcSt11char_traitsIcESaIcEEESt14default_deleteIS5_EEERNSt13tuple_elementIXT_ESt5tupleIJDpT0_EEE4typeERSD_
FNDA:0,_ZSt3getILm1EJPNSt7__cxx1112basic_stringIcSt11char_traitsIcESaIcEEESt14default_deleteIS5_EEERNSt13tuple_elementIXT_ESt5tupleIJDpT0_EEE4typeERSD_
FN:1393,_ZSt3getILm0EJPNSt7__cxx1112basic_stringIcSt11char_traitsIcESaIcEEESt14default_deleteIS5_EEERNSt13tuple_elementIXT_ESt5tupleIJDpT0_EEE4typeERSD_
FNDA:8,_ZSt3getILm0EJPNSt7__cxx1112basic_stringIcSt11char_traitsIcESaIcEEESt14default_deleteIS5_EEERNSt13tuple_elementIXT_ESt5tupleIJDpT0_EEE4typeERSD_
FN:1393,_ZSt3getILm0EJPNSt7__cxx1118basic_stringstreamIcSt11char_traitsIcESaIcEEESt14default_deleteIS5_EEERNSt13tuple_elementIXT_ESt5tupleIJDpT0_EEE4typeERSD_
FNDA:116,_ZSt3getILm0EJPNSt7__cxx1118basic_stringstreamIcSt11char_traitsIcESaIcEEESt14default_deleteIS5_EEERNSt13tuple_elementIXT_ESt5tupleIJDpT0_EEE4typeERSD_
FN:1393,_ZSt3getILm0EJPNSt6thread6_StateESt14default_deleteIS1_EEERNSt13tuple_elementIXT_ESt5tupleIJDpT0_EEE4typeERS9_
FNDA:8,_ZSt3getILm0EJPNSt6thread6_StateESt14default_deleteIS1_EEERNSt13tuple_elementIXT_ESt5tupleIJDpT0_EEE4typeERS9_
FN:1393,_ZSt3getILm1EJPNSt6thread6_StateESt14default_deleteIS1_EEERNSt13tuple_elementIXT_ESt5tupleIJDpT0_EEE4typeERS9_
FNDA:0,_ZSt3getILm1EJPNSt6thread6_StateESt14default_deleteIS1_EEERNSt13tuple_elementIXT_ESt5tupleIJDpT0_EEE4typeERS9_
FN:1399,_ZSt3getILm0EJPNSt7__cxx1112basic_stringIcSt11char_traitsIcESaIcEEESt14default_deleteIS5_EEERKNSt13tuple_elementIXT_ESt5tupleIJDpT0_EEE4typeERKSD_
FNDA:0,_ZSt3getILm0EJPNSt7__cxx1112basic_stringIcSt11char_traitsIcESaIcEEESt14default_deleteIS5_EEERKNSt13tuple_elementIXT_ESt5tupleIJDpT0_EEE4typeERKSD_
FN:1405,_ZSt3getILm0EJZN30AsyncQueueTest_UseThread1_Test8TestBodyEvEUlvE_EEONSt13tuple_elementIXT_ESt5tupleIJDpT0_EEE4typeEOS6_
FNDA:1,_ZSt3getILm0EJZN30AsyncQueueTest_UseThread1_Test8TestBodyEvEUlvE_EEONSt13tuple_elementIXT_ESt5tupleIJDpT0_EEE4typeEOS6_
FN:1405,_ZSt3getILm0EJZN30AsyncQueueTest_UseThread2_Test8TestBodyEvEUlvE0_EEONSt13tuple_elementIXT_ESt5tupleIJDpT0_EEE4typeEOS6_
FNDA:1,_ZSt3getILm0EJZN30AsyncQueueTest_UseThread2_Test8TestBodyEvEUlvE0_EEONSt13tuple_elementIXT_ESt5tupleIJDpT0_EEE4typeEOS6_
FN:1405,_ZSt3getILm0EJZN30AsyncQueueTest_UseThread2_Test8TestBodyEvEUlvE_EEONSt13tuple_elementIXT_ESt5tupleIJDpT0_EEE4typeEOS6_
FNDA:1,_ZSt3getILm0EJZN30AsyncQueueTest_UseThread2_Test8TestBodyEvEUlvE_EEONSt13tuple_elementIXT_ESt5tupleIJDpT0_EEE4typeEOS6_
FN:1405,_ZSt3getILm0EJZN30AsyncQueueTest_UseThread1_Test8TestBodyEvEUlvE0_EEONSt13tuple_elementIXT_ESt5tupleIJDpT0_EEE4typeEOS6_
FNDA:1,_ZSt3getILm0EJZN30AsyncQueueTest_UseThread1_Test8TestBodyEvEUlvE0_EEONSt13tuple_elementIXT_ESt5tupleIJDpT0_EEE4typeEOS6_
DA:80,4
DA:81,4
DA:124,0
DA:124,58
DA:124,0
DA:189,4
DA:190,4
DA:199,1
DA:200,1
DA:199,1
DA:200,1
DA:199,1
DA:200,1
DA:199,1
DA:200,1
DA:233,1
DA:233,1
DA:233,1
DA:233,1
DA:233,8
DA:233,8
DA:233,116
DA:236,0
DA:268,8
DA:268,8
DA:268,116
DA:271,0
DA:279,4
DA:280,4
DA:424,1
DA:424,1
DA:424,1
DA:424,1
DA:424,0
DA:424,58
DA:424,0
DA:430,4
DA:431,4
DA:440,1
DA:441,1
DA:442,1
DA:440,1
DA:441,1
DA:442,1
DA:440,1
DA:441,1
DA:442,1
DA:440,1
DA:441,1
DA:442,1
DA:742,1
DA:744,1
DA:742,1
DA:744,1
DA:742,1
DA:744,1
DA:742,1
DA:744,1
DA:1049,4
DA:1051,4
DA:1377,1
DA:1378,1
DA:1377,1
DA:1378,1
DA:1377,1
DA:1378,1
DA:1377,1
DA:1378,1
DA:1377,0
DA:1378,0
DA:1377,8
DA:1378,8
DA:1377,58
DA:1378,58
DA:1377,0
DA:1378,0
DA:1377,8
DA:1378,8
DA:1377,116
DA:1378,116
DA:1382,0
DA:1383,0
DA:1393,0
DA:1394,0
DA:1393,8
DA:1394,8
DA:1393,58
DA:1394,58
DA:1393,0
DA:1394,0
DA:1393,8
DA:1394,8
DA:1393,116
DA:1394,116
DA:1399,0
DA:1400,0
DA:1405,1
DA:1408,1
DA:1405,1
DA:1408,1
DA:1405,1
DA:1408,1
DA:1405,1
DA:1408,1
end_of_record
SF:/usr/include/c++/11/ext/type_traits.h
FN:152,_ZN9__gnu_cxx17__is_null_pointerIKcEEbPT_
FNDA:40,_ZN9__gnu_cxx17__is_null_pointerIKcEEbPT_
DA:152,40
DA:153,40
end_of_record
SF:/usr/include/c++/11/bits/basic_string.h
FN:164,_ZNSt7__cxx1112basic_stringIcSt11char_traitsIcESaIcEE12_Alloc_hiderC2EPcRKS3_
FNDA:34,_ZNSt7__cxx1112basic_stringIcSt11char_traitsIcESaIcEE12_Alloc_hiderC2EPcRKS3_
FN:167,_ZNSt7__cxx1112basic_stringIcSt11char_traitsIcESaIcEE12_Alloc_hiderC2EPcOS3_
FNDA:71,_ZNSt7__cxx1112basic_stringIcSt11char_traitsIcESaIcEE12_Alloc_hiderC2EPcOS3_
FN:186,_ZNSt7__cxx1112basic_stringIcSt11char_traitsIcESaIcEE7_M_dataEPc
FNDA:110,_ZNSt7__cxx1112basic_stringIcSt11char_traitsIcESaIcEE7_M_dataEPc
FN:190,_ZNSt7__cxx1112basic_stringIcSt11char_traitsIcESaIcEE9_M_lengthEm
FNDA:182,_ZNSt7__cxx1112basic_stringIcSt11char_traitsIcESaIcEE9_M_lengthEm
FN:194,_ZNKSt7__cxx1112basic_stringIcSt11char_traitsIcESaIcEE7_M_dataEv
FNDA:1285,_ZNKSt7__cxx1112basic_stringIcSt11char_traitsIcESaIcEE7_M_dataEv
FN:198,_ZNSt7__cxx1112basic_stringIcSt11char_traitsIcESaIcEE13_M_local_dataEv
FNDA:176,_ZNSt7__cxx1112basic_stringIcSt11char_traitsIcESaIcEE13_M_local_dataEv
FN:208,_ZNKSt7__cxx1112basic_stringIcSt11char_traitsIcESaIcEE13_M_local_dataEv
FNDA:348,_ZNKSt7__cxx1112basic_stringIcSt11char_traitsIcESaIcEE13_M_local_dataEv
FN:218,_ZNSt7__cxx1112basic_stringIcSt11char_traitsIcESaIcEE11_M_capacityEm
FNDA:39,_ZNSt7__cxx1112basic_stringIcSt11char_traitsIcESaIcEE11_M_capacityEm
FN:222,_ZNSt7__cxx1112basic_stringIcSt11char_traitsIcESaIcEE13_M_set_lengthEm
FNDA:111,_ZNSt7__cxx1112basic_stringIcSt11char_traitsIcESaIcEE13_M_set_lengthEm
FN:229,_ZNKSt7__cxx1112basic_stringIcSt11char_traitsIcESaIcEE11_M_is_localEv
FNDA:348,_ZNKSt7__cxx1112basic_stringIcSt11char_traitsIcESaIcEE11_M_is_localEv
FN:237,_ZNSt7__cxx1112basic_stringIcSt11char_traitsIcESaIcEE10_M_disposeEv
FNDA:277,_ZNSt7__cxx1112basic_stringIcSt11char_traitsIcESaIcEE10_M_disposeEv
FN:244,_ZNSt7__cxx1112basic_stringIcSt11char_traitsIcESaIcEE10_M_destroyEm
FNDA:88,_ZNSt7__cxx1112basic_stringIcSt11char_traitsIcESaIcEE10_M_destroyEm
FN:294,_ZNSt7__cxx1112basic_stringIcSt11char_traitsIcESaIcEE16_M_get_allocatorEv
FNDA:274,_ZNSt7__cxx1112basic_stringIcSt11char_traitsIcESaIcEE16_M_get_allocatorEv
FN:298,_ZNKSt7__cxx1112basic_stringIcSt11char_traitsIcESaIcEE16_M_get_allocatorEv
FNDA:155,_ZNKSt7__cxx1112basic_stringIcSt11char_traitsIcESaIcEE16_M_get_allocatorEv
FN:354,_ZNSt7__cxx1112basic_stringIcSt11char_traitsIcESaIcEE7_S_copyEPcPKcm
FNDA:40,_ZNSt7__cxx1112basic_stringIcSt11char_traitsIcESaIcEE7_S_copyEPcPKcm
FN:404,_ZNSt7__cxx1112basic_stringIcSt11char_traitsIcESaIcEE13_S_copy_charsEPcPKcS7_
FNDA:40,_ZNSt7__cxx1112basic_stringIcSt11char_traitsIcESaIcEE13_S_copy_charsEPcPKcS7_
FN:533,_ZNSt7__cxx1112basic_stringIcSt11char_traitsIcESaIcEEC2IS3_EEPKcRKS3_
FNDA:34,_ZNSt7__cxx1112basic_stringIcSt11char_traitsIcESaIcEEC2IS3_EEPKcRKS3_
FN:565,_ZNSt7__cxx1112basic_stringIcSt11char_traitsIcESaIcEEC2EOS4_
FNDA:71,_ZNSt7__cxx1112basic_stringIcSt11char_traitsIcESaIcEEC2EOS4_
FN:671,_ZNSt7__cxx1112basic_stringIcSt11char_traitsIcESaIcEED2Ev
FNDA:277,_ZNSt7__cxx1112basic_stringIcSt11char_traitsIcESaIcEED2Ev
FN:926,_ZNKSt7__cxx1112basic_stringIcSt11char_traitsIcESaIcEE6lengthEv
FNDA:593,_ZNKSt7__cxx1112basic_stringIcSt11char_traitsIcESaIcEE6lengthEv
FN:931,_ZNKSt7__cxx1112basic_stringIcSt11char_traitsIcESaIcEE8max_sizeEv
FNDA:155,_ZNKSt7__cxx1112basic_stringIcSt11char_traitsIcESaIcEE8max_sizeEv
FN:2320,_ZNKSt7__cxx1112basic_stringIcSt11char_traitsIcESaIcEE5c_strEv
FNDA:670,_ZNKSt7__cxx1112basic_stringIcSt11char_traitsIcESaIcEE5c_strEv
DA:164,34
DA:165,34
DA:167,71
DA:168,71
DA:186,110
DA:187,110
DA:190,182
DA:191,182
DA:194,1285
DA:195,1285
DA:198,176
DA:201,176
DA:208,348
DA:211,348
DA:218,39
DA:219,39
DA:222,111
DA:224,111
DA:225,111
DA:226,111
DA:229,348
DA:230,348
DA:237,277
DA:239,277
DA:240,88
DA:241,277
DA:244,88
DA:245,88
DA:294,274
DA:295,274
DA:298,155
DA:299,155
DA:354,40
DA:356,40
DA:357,3
DA:359,37
DA:360,40
DA:404,40
DA:406,40
DA:533,34
DA:534,34
DA:536,34
DA:539,34
DA:540,34
DA:565,71
DA:566,71
DA:568,71
DA:570,43
DA:575,28
DA:576,28
DA:582,71
DA:583,71
DA:584,71
DA:585,71
DA:671,277
DA:672,277
DA:926,593
DA:927,593
DA:931,155
DA:932,155
DA:2320,670
DA:2321,670
end_of_record
SF:/home/atohs/cpp/CppLearning/build/_deps/googletest-src/googletest/include/gtest/internal/gtest-port.h
FN:1085,_ZN7testing8internal8GTestLog9GetStreamEv
FNDA:0,_ZN7testing8internal8GTestLog9GetStreamEv
DA:1085,0
end_of_record
SF:/usr/include/c++/11/bits/this_thread_sleep.h
FN:70,_ZNSt11this_thread9sleep_forIlSt5ratioILl1ELl1000EEEEvRKNSt6chrono8durationIT_T0_EE
FNDA:1,_ZNSt11this_thread9sleep_forIlSt5ratioILl1ELl1000EEEEvRKNSt6chrono8durationIT_T0_EE
DA:70,1
DA:72,1
DA:73,0
DA:74,1
DA:75,1
DA:77,1
DA:79,1
DA:80,1
DA:82,1
end_of_record
SF:/usr/include/c++/11/bits/stl_iterator_base_types.h
FN:238,_ZSt19__iterator_categoryIPKcENSt15iterator_traitsIT_E17iterator_categoryERKS3_
FNDA:40,_ZSt19__iterator_categoryIPKcENSt15iterator_traitsIT_E17iterator_categoryERKS3_
DA:238,40
DA:239,40
end_of_record
SF:/usr/include/c++/11/bits/unique_lock.h
FN:66,_ZNSt11unique_lockISt5mutexEC2ERS0_
FNDA:6,_ZNSt11unique_lockISt5mutexEC2ERS0_
FN:101,_ZNSt11unique_lockISt5mutexED2Ev
FNDA:6,_ZNSt11unique_lockISt5mutexED2Ev
FN:131,_ZNSt11unique_lockISt5mutexE4lockEv
FNDA:6,_ZNSt11unique_lockISt5mutexE4lockEv
FN:189,_ZNSt11unique_lockISt5mutexE6unlockEv
FNDA:6,_ZNSt11unique_lockISt5mutexE6unlockEv
FN:224,_ZNKSt11unique_lockISt5mutexE5mutexEv
FNDA:2,_ZNKSt11unique_lockISt5mutexE5mutexEv
DA:66,6
DA:67,6
DA:69,6
DA:70,6
DA:71,6
DA:101,6
DA:103,6
DA:104,6
DA:105,6
DA:131,6
DA:133,6
DA:134,0
DA:135,6
DA:136,0
DA:139,6
DA:140,6
DA:142,6
DA:189,6
DA:191,6
DA:192,0
DA:193,6
DA:195,6
DA:196,6
DA:198,6
DA:224,2
DA:225,2
end_of_record
SF:/usr/include/c++/11/bits/stl_iterator_base_funcs.h
FN:98,_ZSt10__distanceIPKcENSt15iterator_traitsIT_E15difference_typeES3_S3_St26random_access_iterator_tag
FNDA:40,_ZSt10__distanceIPKcENSt15iterator_traitsIT_E15difference_typeES3_S3_St26random_access_iterator_tag
FN:138,_ZSt8distanceIPKcENSt15iterator_traitsIT_E15difference_typeES3_S3_
FNDA:40,_ZSt8distanceIPKcENSt15iterator_traitsIT_E15difference_typeES3_S3_
DA:98,40
DA:104,40
DA:138,40
DA:141,40
DA:142,80
end_of_record
SF:/usr/include/c++/11/bits/char_traits.h
FN:106,_ZN9__gnu_cxx11char_traitsIcE2eqERKcS3_
FNDA:0,_ZN9__gnu_cxx11char_traitsIcE2eqERKcS3_
FN:167,_ZN9__gnu_cxx11char_traitsIcE6lengthEPKc
FNDA:0,_ZN9__gnu_cxx11char_traitsIcE6lengthEPKc
FN:240,_ZN9__gnu_cxx11char_traitsIcE4copyEPcPKcm
FNDA:0,_ZN9__gnu_cxx11char_traitsIcE4copyEPcPKcm
FN:356,_ZNSt11char_traitsIcE6assignERcRKc
FNDA:114,_ZNSt11char_traitsIcE6assignERcRKc
FN:393,_ZNSt11char_traitsIcE6lengthEPKc
FNDA:34,_ZNSt11char_traitsIcE6lengthEPKc
FN:429,_ZNSt11char_traitsIcE4copyEPcPKcm
FNDA:80,_ZNSt11char_traitsIcE4copyEPcPKcm
DA:106,0
DA:107,0
DA:167,0
DA:170,0
DA:171,0
DA:172,0
DA:173,0
DA:240,0
DA:244,0
DA:245,0
DA:290,34
DA:356,114
DA:357,114
DA:393,34
DA:396,34
DA:397,0
DA:399,34
DA:429,80
DA:431,80
DA:432,8
DA:434,72
DA:435,0
DA:437,72
end_of_record
SF:/usr/include/c++/11/bits/alloc_traits.h
FN:463,_ZNSt16allocator_traitsISaIiEE8allocateERS0_m
FNDA:11,_ZNSt16allocator_traitsISaIiEE8allocateERS0_m
FN:463,_ZNSt16allocator_traitsISaIPiEE8allocateERS1_m
FNDA:6,_ZNSt16allocator_traitsISaIPiEE8allocateERS1_m
FN:463,_ZNSt16allocator_traitsISaIcEE8allocateERS0_m
FNDA:115,_ZNSt16allocator_traitsISaIcEE8allocateERS0_m
FN:495,_ZNSt16allocator_traitsISaIiEE10deallocateERS0_Pim
FNDA:11,_ZNSt16allocator_traitsISaIiEE10deallocateERS0_Pim
FN:495,_ZNSt16allocator_traitsISaIPiEE10deallocateERS1_PS0_m
FNDA:6,_ZNSt16allocator_traitsISaIPiEE10deallocateERS1_PS0_m
FN:495,_ZNSt16allocator_traitsISaIcEE10deallocateERS0_Pcm
FNDA:88,_ZNSt16allocator_traitsISaIcEE10deallocateERS0_Pcm
FN:511,_ZNSt16allocator_traitsISaIiEE9constructIiJKiEEEvRS0_PT_DpOT0_
FNDA:1,_ZNSt16allocator_traitsISaIiEE9constructIiJKiEEEvRS0_PT_DpOT0_
FN:511,_ZNSt16allocator_traitsISaIiEE9constructIiJRKiEEEvRS0_PT_DpOT0_
FNDA:4,_ZNSt16allocator_traitsISaIiEE9constructIiJRKiEEEvRS0_PT_DpOT0_
FN:531,_ZNSt16allocator_traitsISaIiEE7destroyIiEEvRS0_PT_
FNDA:5,_ZNSt16allocator_traitsISaIiEE7destroyIiEEvRS0_PT_
FN:547,_ZNSt16allocator_traitsISaIiEE8max_sizeERKS0_
FNDA:10,_ZNSt16allocator_traitsISaIiEE8max_sizeERKS0_
FN:547,_ZNSt16allocator_traitsISaIcEE8max_sizeERKS0_
FNDA:155,_ZNSt16allocator_traitsISaIcEE8max_sizeERKS0_
DA:463,11
DA:464,11
DA:463,6
DA:464,6
DA:463,115
DA:464,115
DA:495,11
DA:496,11
DA:495,6
DA:496,6
DA:495,88
DA:496,88
DA:511,1
DA:518,1
DA:520,1
DA:511,4
DA:518,4
DA:520,4
DA:531,5
DA:537,5
DA:539,5
DA:547,10
DA:552,10
DA:547,155
DA:552,155
end_of_record
SF:/usr/include/c++/11/bits/allocator.h
FN:156,_ZNSaIiEC2Ev
FNDA:8,_ZNSaIiEC2Ev
FN:169,_ZNSaIPiEC2IiEERKSaIT_E
FNDA:12,_ZNSaIPiEC2IiEERKSaIT_E
FN:174,_ZNSaIPiED2Ev
FNDA:12,_ZNSaIPiED2Ev
FN:174,_ZNSaIiED2Ev
FNDA:8,_ZNSaIiED2Ev
DA:156,8
DA:169,12
DA:174,12
DA:174,8
DA:182,132
DA:183,0
DA:185,132
DA:193,105
DA:195,0
DA:196,0
DA:199,105
end_of_record
SF:/usr/include/c++/11/ext/new_allocator.h
FN:79,_ZN9__gnu_cxx13new_allocatorIPiEC2Ev
FNDA:12,_ZN9__gnu_cxx13new_allocatorIPiEC2Ev
FN:79,_ZN9__gnu_cxx13new_allocatorIiEC2Ev
FNDA:8,_ZN9__gnu_cxx13new_allocatorIiEC2Ev
FN:79,_ZN9__gnu_cxx13new_allocatorIcEC2Ev
FNDA:0,_ZN9__gnu_cxx13new_allocatorIcEC2Ev
FN:103,_ZN9__gnu_cxx13new_allocatorIiE8allocateEmPKv
FNDA:11,_ZN9__gnu_cxx13new_allocatorIiE8allocateEmPKv
FN:103,_ZN9__gnu_cxx13new_allocatorIPiE8allocateEmPKv
FNDA:6,_ZN9__gnu_cxx13new_allocatorIPiE8allocateEmPKv
FN:103,_ZN9__gnu_cxx13new_allocatorIcE8allocateEmPKv
FNDA:115,_ZN9__gnu_cxx13new_allocatorIcE8allocateEmPKv
FN:132,_ZN9__gnu_cxx13new_allocatorIiE10deallocateEPim
FNDA:11,_ZN9__gnu_cxx13new_allocatorIiE10deallocateEPim
FN:132,_ZN9__gnu_cxx13new_allocatorIPiE10deallocateEPS1_m
FNDA:6,_ZN9__gnu_cxx13new_allocatorIPiE10deallocateEPS1_m
FN:132,_ZN9__gnu_cxx13new_allocatorIcE10deallocateEPcm
FNDA:88,_ZN9__gnu_cxx13new_allocatorIcE10deallocateEPcm
FN:197,_ZNK9__gnu_cxx13new_allocatorIiE11_M_max_sizeEv
FNDA:11,_ZNK9__gnu_cxx13new_allocatorIiE11_M_max_sizeEv
FN:197,_ZNK9__gnu_cxx13new_allocatorIPiE11_M_max_sizeEv
FNDA:6,_ZNK9__gnu_cxx13new_allocatorIPiE11_M_max_sizeEv
FN:197,_ZNK9__gnu_cxx13new_allocatorIcE11_M_max_sizeEv
FNDA:115,_ZNK9__gnu_cxx13new_allocatorIcE11_M_max_sizeEv
DA:79,12
DA:79,8
DA:79,0
DA:103,11
DA:111,11
DA:115,0
DA:116,0
DA:117,0
DA:127,11
DA:103,6
DA:111,6
DA:115,0
DA:116,0
DA:117,0
DA:127,6
DA:103,115
DA:111,115
DA:117,0
DA:127,115
DA:132,11
DA:145,11
DA:132,6
DA:145,6
DA:132,88
DA:145,88
DA:197,11
DA:200,11
DA:197,6
DA:200,6
DA:197,115
DA:200,115
end_of_record
SF:/home/atohs/cpp/CppLearning/tests/AsyncQueueTest/main.cpp
FN:11,_ZN14AsyncQueueTest5SetUpEv
FNDA:6,_ZN14AsyncQueueTest5SetUpEv
FN:12,_ZN14AsyncQueueTest8TearDownEv
FNDA:6,_ZN14AsyncQueueTest8TearDownEv
FN:15,_ZN27AsyncQueueTest_Emplace_TestC2Ev
FNDA:1,_ZN27AsyncQueueTest_Emplace_TestC2Ev
FN:15,_ZN27AsyncQueueTest_Emplace_Test8TestBodyEv
FNDA:1,_ZN27AsyncQueueTest_Emplace_Test8TestBodyEv
FN:15,_ZN27AsyncQueueTest_Emplace_TestD0Ev
FNDA:1,_ZN27AsyncQueueTest_Emplace_TestD0Ev
FN:15,_ZN27AsyncQueueTest_Emplace_TestD2Ev
FNDA:1,_ZN27AsyncQueueTest_Emplace_TestD2Ev
FN:22,_ZN42AsyncQueueTest_LeftValueReferencePush_TestC2Ev
FNDA:1,_ZN42AsyncQueueTest_LeftValueReferencePush_TestC2Ev
FN:22,_ZN42AsyncQueueTest_LeftValueReferencePush_Test8TestBodyEv
FNDA:1,_ZN42AsyncQueueTest_LeftValueReferencePush_Test8TestBodyEv
FN:22,_ZN42AsyncQueueTest_LeftValueReferencePush_TestD2Ev
FNDA:1,_ZN42AsyncQueueTest_LeftValueReferencePush_TestD2Ev
FN:22,_ZN42AsyncQueueTest_LeftValueReferencePush_TestD0Ev
FNDA:1,_ZN42AsyncQueueTest_LeftValueReferencePush_TestD0Ev
FN:29,_ZN43AsyncQueueTest_RightValueReferencePush_TestD0Ev
FNDA:1,_ZN43AsyncQueueTest_RightValueReferencePush_TestD0Ev
FN:29,_ZN43AsyncQueueTest_RightValueReferencePush_TestC2Ev
FNDA:1,_ZN43AsyncQueueTest_RightValueReferencePush_TestC2Ev
FN:29,_ZN43AsyncQueueTest_RightValueReferencePush_Test8TestBodyEv
FNDA:1,_ZN43AsyncQueueTest_RightValueReferencePush_Test8TestBodyEv
FN:29,_ZN43AsyncQueueTest_RightValueReferencePush_TestD2Ev
FNDA:1,_ZN43AsyncQueueTest_RightValueReferencePush_TestD2Ev
FN:36,_ZN31AsyncQueueTest_TimedOutPop_TestC2Ev
FNDA:1,_ZN31AsyncQueueTest_TimedOutPop_TestC2Ev
FN:36,_ZN31AsyncQueueTest_TimedOutPop_TestD0Ev
FNDA:1,_ZN31AsyncQueueTest_TimedOutPop_TestD0Ev
FN:36,_ZN31AsyncQueueTest_TimedOutPop_Test8TestBodyEv
FNDA:1,_ZN31AsyncQueueTest_TimedOutPop_Test8TestBodyEv
FN:36,_ZN31AsyncQueueTest_TimedOutPop_TestD2Ev
FNDA:1,_ZN31AsyncQueueTest_TimedOutPop_TestD2Ev
FN:41,_ZN30AsyncQueueTest_UseThread1_Test8TestBodyEv
FNDA:1,_ZN30AsyncQueueTest_UseThread1_Test8TestBodyEv
FN:41,_ZN30AsyncQueueTest_UseThread1_TestC2Ev
FNDA:1,_ZN30AsyncQueueTest_UseThread1_TestC2Ev
FN:41,_ZN30AsyncQueueTest_UseThread1_TestD2Ev
FNDA:1,_ZN30AsyncQueueTest_UseThread1_TestD2Ev
FN:41,_ZN30AsyncQueueTest_UseThread1_TestD0Ev
FNDA:1,_ZN30AsyncQueueTest_UseThread1_TestD0Ev
FN:45,_ZZN30AsyncQueueTest_UseThread1_Test8TestBodyEvENKUlvE_clEv
FNDA:1,_ZZN30AsyncQueueTest_UseThread1_Test8TestBodyEvENKUlvE_clEv
FN:48,_ZZN30AsyncQueueTest_UseThread1_Test8TestBodyEvENKUlvE0_clEv
FNDA:1,_ZZN30AsyncQueueTest_UseThread1_Test8TestBodyEvENKUlvE0_clEv
FN:57,_ZN30AsyncQueueTest_UseThread2_Test8TestBodyEv
FNDA:1,_ZN30AsyncQueueTest_UseThread2_Test8TestBodyEv
FN:57,_ZN30AsyncQueueTest_UseThread2_TestD2Ev
FNDA:1,_ZN30AsyncQueueTest_UseThread2_TestD2Ev
FN:57,_ZN30AsyncQueueTest_UseThread2_TestC2Ev
FNDA:1,_ZN30AsyncQueueTest_UseThread2_TestC2Ev
FN:57,_ZN30AsyncQueueTest_UseThread2_TestD0Ev
FNDA:1,_ZN30AsyncQueueTest_UseThread2_TestD0Ev
FN:61,_ZZN30AsyncQueueTest_UseThread2_Test8TestBodyEvENKUlvE_clEv
FNDA:1,_ZZN30AsyncQueueTest_UseThread2_Test8TestBodyEvENKUlvE_clEv
FN:64,_ZZN30AsyncQueueTest_UseThread2_Test8TestBodyEvENKUlvE0_clEv
FNDA:1,_ZZN30AsyncQueueTest_UseThread2_Test8TestBodyEvENKUlvE0_clEv
DA:11,6
DA:12,6
DA:15,1
DA:15,1
DA:15,1
DA:15,1
DA:16,1
DA:17,1
DA:18,1
DA:19,1
DA:20,1
DA:22,1
DA:22,1
DA:22,1
DA:22,1
DA:23,1
DA:24,1
DA:25,1
DA:26,1
DA:27,1
DA:29,1
DA:29,1
DA:29,1
DA:29,1
DA:30,1
DA:31,1
DA:32,1
DA:33,1
DA:34,1
DA:36,1
DA:36,1
DA:36,1
DA:36,1
DA:37,1
DA:38,1
DA:39,1
DA:41,1
DA:41,1
DA:41,1
DA:41,1
DA:42,1
DA:43,1
DA:44,1
DA:45,1
DA:47,1
DA:48,1
DA:50,1
DA:51,1
DA:52,1
DA:53,1
DA:54,1
DA:55,1
DA:45,1
DA:46,1
DA:47,1
DA:48,1
DA:49,1
DA:50,1
DA:57,1
DA:57,1
DA:57,1
DA:57,1
DA:58,1
DA:59,1
DA:60,1
DA:61,1
DA:63,1
DA:64,1
DA:67,1
DA:68,1
DA:69,1
DA:70,1
DA:71,1
DA:72,1
DA:61,1
DA:62,1
DA:63,1
DA:64,1
DA:65,1
DA:66,1
DA:67,1
end_of_record
SF:/usr/include/x86_64-linux-gnu/c++/11/bits/gthr-default.h
FN:300,_ZL18__gthread_active_pv
FNDA:20,_ZL18__gthread_active_pv
FN:746,_ZL20__gthread_mutex_lockP15pthread_mutex_t
FNDA:10,_ZL20__gthread_mutex_lockP15pthread_mutex_t
FN:776,_ZL22__gthread_mutex_unlockP15pthread_mutex_t
FNDA:10,_ZL22__gthread_mutex_unlockP15pthread_mutex_t
DA:300,20
DA:302,20
DA:746,10
DA:748,10
DA:749,10
DA:751,0
DA:776,10
DA:778,10
DA:779,10
DA:781,0
end_of_record
SF:/usr/include/c++/11/bits/unique_ptr.h
FN:79,_ZNKSt14default_deleteINSt6thread6_StateEEclEPS1_
FNDA:0,_ZNKSt14default_deleteINSt6thread6_StateEEclEPS1_
FN:79,_ZNKSt14default_deleteINSt7__cxx1112basic_stringIcSt11char_traitsIcESaIcEEEEclEPS5_
FNDA:0,_ZNKSt14default_deleteINSt7__cxx1112basic_stringIcSt11char_traitsIcESaIcEEEEclEPS5_
FN:79,_ZNKSt14default_deleteINSt7__cxx1118basic_stringstreamIcSt11char_traitsIcESaIcEEEEclEPS5_
FNDA:58,_ZNKSt14default_deleteINSt7__cxx1118basic_stringstreamIcSt11char_traitsIcESaIcEEEEclEPS5_
FN:155,_ZNSt15__uniq_ptr_implINSt6thread6_StateESt14default_deleteIS1_EEC2EPS1_
FNDA:4,_ZNSt15__uniq_ptr_implINSt6thread6_StateESt14default_deleteIS1_EEC2EPS1_
FN:172,_ZNSt15__uniq_ptr_implINSt6thread6_StateESt14default_deleteIS1_EE6_M_ptrEv
FNDA:8,_ZNSt15__uniq_ptr_implINSt6thread6_StateESt14default_deleteIS1_EE6_M_ptrEv
FN:172,_ZNSt15__uniq_ptr_implINSt7__cxx1118basic_stringstreamIcSt11char_traitsIcESaIcEEESt14default_deleteIS5_EE6_M_ptrEv
FNDA:116,_ZNSt15__uniq_ptr_implINSt7__cxx1118basic_stringstreamIcSt11char_traitsIcESaIcEEESt14default_deleteIS5_EE6_M_ptrEv
FN:172,_ZNSt15__uniq_ptr_implINSt7__cxx1112basic_stringIcSt11char_traitsIcESaIcEEESt14default_deleteIS5_EE6_M_ptrEv
FNDA:8,_ZNSt15__uniq_ptr_implINSt7__cxx1112basic_stringIcSt11char_traitsIcESaIcEEESt14default_deleteIS5_EE6_M_ptrEv
FN:173,_ZNKSt15__uniq_ptr_implINSt7__cxx1112basic_stringIcSt11char_traitsIcESaIcEEESt14default_deleteIS5_EE6_M_ptrEv
FNDA:0,_ZNKSt15__uniq_ptr_implINSt7__cxx1112basic_stringIcSt11char_traitsIcESaIcEEESt14default_deleteIS5_EE6_M_ptrEv
FN:174,_ZNSt15__uniq_ptr_implINSt6thread6_StateESt14default_deleteIS1_EE10_M_deleterEv
FNDA:0,_ZNSt15__uniq_ptr_implINSt6thread6_StateESt14default_deleteIS1_EE10_M_deleterEv
FN:174,_ZNSt15__uniq_ptr_implINSt7__cxx1118basic_stringstreamIcSt11char_traitsIcESaIcEEESt14default_deleteIS5_EE10_M_deleterEv
FNDA:58,_ZNSt15__uniq_ptr_implINSt7__cxx1118basic_stringstreamIcSt11char_traitsIcESaIcEEESt14default_deleteIS5_EE10_M_deleterEv
FN:174,_ZNSt15__uniq_ptr_implINSt7__cxx1112basic_stringIcSt11char_traitsIcESaIcEEESt14default_deleteIS5_EE10_M_deleterEv
FNDA:0,_ZNSt15__uniq_ptr_implINSt7__cxx1112basic_stringIcSt11char_traitsIcESaIcEEESt14default_deleteIS5_EE10_M_deleterEv
FN:281,_ZNSt10unique_ptrINSt6thread6_StateESt14default_deleteIS1_EEC2IS3_vEEPS1_
FNDA:4,_ZNSt10unique_ptrINSt6thread6_StateESt14default_deleteIS1_EEC2IS3_vEEPS1_
FN:355,_ZNSt10unique_ptrINSt7__cxx1118basic_stringstreamIcSt11char_traitsIcESaIcEEESt14default_deleteIS5_EED2Ev
FNDA:58,_ZNSt10unique_ptrINSt7__cxx1118basic_stringstreamIcSt11char_traitsIcESaIcEEESt14default_deleteIS5_EED2Ev
FN:355,_ZNSt10unique_ptrINSt7__cxx1112basic_stringIcSt11char_traitsIcESaIcEEESt14default_deleteIS5_EED2Ev
FNDA:8,_ZNSt10unique_ptrINSt7__cxx1112basic_stringIcSt11char_traitsIcESaIcEEESt14default_deleteIS5_EED2Ev
FN:355,_ZNSt10unique_ptrINSt6thread6_StateESt14default_deleteIS1_EED2Ev
FNDA:4,_ZNSt10unique_ptrINSt6thread6_StateESt14default_deleteIS1_EED2Ev
FN:413,_ZNKSt10unique_ptrINSt7__cxx1112basic_stringIcSt11char_traitsIcESaIcEEESt14default_deleteIS5_EEptEv
FNDA:0,_ZNKSt10unique_ptrINSt7__cxx1112basic_stringIcSt11char_traitsIcESaIcEEESt14default_deleteIS5_EEptEv
FN:421,_ZNKSt10unique_ptrINSt7__cxx1112basic_stringIcSt11char_traitsIcESaIcEEESt14default_deleteIS5_EE3getEv
FNDA:0,_ZNKSt10unique_ptrINSt7__cxx1112basic_stringIcSt11char_traitsIcESaIcEEESt14default_deleteIS5_EE3getEv
FN:426,_ZNSt10unique_ptrINSt7__cxx1118basic_stringstreamIcSt11char_traitsIcESaIcEEESt14default_deleteIS5_EE11get_deleterEv
FNDA:58,_ZNSt10unique_ptrINSt7__cxx1118basic_stringstreamIcSt11char_traitsIcESaIcEEESt14default_deleteIS5_EE11get_deleterEv
FN:426,_ZNSt10unique_ptrINSt7__cxx1112basic_stringIcSt11char_traitsIcESaIcEEESt14default_deleteIS5_EE11get_deleterEv
FNDA:0,_ZNSt10unique_ptrINSt7__cxx1112basic_stringIcSt11char_traitsIcESaIcEEESt14default_deleteIS5_EE11get_deleterEv
FN:426,_ZNSt10unique_ptrINSt6thread6_StateESt14default_deleteIS1_EE11get_deleterEv
FNDA:0,_ZNSt10unique_ptrINSt6thread6_StateESt14default_deleteIS1_EE11get_deleterEv
FN:435,_ZNKSt10unique_ptrINSt7__cxx1112basic_stringIcSt11char_traitsIcESaIcEEESt14default_deleteIS5_EEcvbEv
FNDA:0,_ZNKSt10unique_ptrINSt7__cxx1112basic_stringIcSt11char_traitsIcESaIcEEESt14default_deleteIS5_EEcvbEv
FN:760,_ZSteqINSt7__cxx1112basic_stringIcSt11char_traitsIcESaIcEEESt14default_deleteIS5_EEbRKSt10unique_ptrIT_T0_EDn
FNDA:0,_ZSteqINSt7__cxx1112basic_stringIcSt11char_traitsIcESaIcEEESt14default_deleteIS5_EEbRKSt10unique_ptrIT_T0_EDn
DA:79,0
DA:85,0
DA:86,0
DA:79,0
DA:85,0
DA:86,0
DA:79,58
DA:85,58
DA:86,58
DA:155,4
DA:172,8
DA:172,8
DA:172,116
DA:173,0
DA:174,0
DA:174,58
DA:174,0
DA:281,4
DA:282,4
DA:283,4
DA:355,4
DA:359,4
DA:360,4
DA:361,0
DA:362,4
DA:363,4
DA:355,8
DA:359,8
DA:360,8
DA:361,0
DA:362,8
DA:363,8
DA:355,58
DA:359,58
DA:360,58
DA:361,58
DA:362,58
DA:363,58
DA:413,0
DA:416,0
DA:421,0
DA:422,0
DA:426,0
DA:427,0
DA:426,0
DA:427,0
DA:426,58
DA:427,58
DA:435,0
DA:436,0
DA:760,0
DA:761,0
end_of_record
SF:/usr/include/c++/11/condition_variable
FN:100,_ZNSt18condition_variable4waitIZN10AsyncQueueIiE9_TimedPopEPiNSt6chrono8durationIlSt5ratioILl1ELl1000EEEEEUlvE_EEvRSt11unique_lockISt5mutexET_
FNDA:3,_ZNSt18condition_variable4waitIZN10AsyncQueueIiE9_TimedPopEPiNSt6chrono8durationIlSt5ratioILl1ELl1000EEEEEUlvE_EEvRSt11unique_lockISt5mutexET_
FN:109,_ZNSt18condition_variable10wait_untilINSt6chrono8durationIlSt5ratioILl1ELl1000000000EEEEEESt9cv_statusRSt11unique_lockISt5mutexERKNS1_10time_pointINS1_3_V212steady_clockET_EE
FNDA:2,_ZNSt18condition_variable10wait_untilINSt6chrono8durationIlSt5ratioILl1ELl1000000000EEEEEESt9cv_statusRSt11unique_lockISt5mutexERKNS1_10time_pointINS1_3_V212steady_clockET_EE
FN:147,_ZNSt18condition_variable10wait_untilINSt6chrono3_V212steady_clockENS1_8durationIlSt5ratioILl1ELl1000000000EEEEZN10AsyncQueueIiE9_TimedPopEPiNS4_IlS5_ILl1ELl1000EEEEEUlvE0_EEbRSt11unique_lockISt5mutexERKNS1_10time_pointIT_T0_EET1_
FNDA:3,_ZNSt18condition_variable10wait_untilINSt6chrono3_V212steady_clockENS1_8durationIlSt5ratioILl1ELl1000000000EEEEZN10AsyncQueueIiE9_TimedPopEPiNS4_IlS5_ILl1ELl1000EEEEEUlvE0_EEbRSt11unique_lockISt5mutexERKNS1_10time_pointIT_T0_EET1_
FN:170,_ZNSt18condition_variable8wait_forIlSt5ratioILl1ELl1000EEZN10AsyncQueueIiE9_TimedPopEPiNSt6chrono8durationIlS2_EEEUlvE0_EEbRSt11unique_lockISt5mutexERKNS7_IT_T0_EET1_
FNDA:3,_ZNSt18condition_variable8wait_forIlSt5ratioILl1ELl1000EEZN10AsyncQueueIiE9_TimedPopEPiNSt6chrono8durationIlS2_EEEUlvE0_EEbRSt11unique_lockISt5mutexERKNS7_IT_T0_EET1_
FN:189,_ZNSt18condition_variable17__wait_until_implINSt6chrono8durationIlSt5ratioILl1ELl1000000000EEEEEESt9cv_statusRSt11unique_lockISt5mutexERKNS1_10time_pointINS1_3_V212steady_clockET_EE
FNDA:2,_ZNSt18condition_variable17__wait_until_implINSt6chrono8durationIlSt5ratioILl1ELl1000000000EEEEEESt9cv_statusRSt11unique_lockISt5mutexERKNS1_10time_pointINS1_3_V212steady_clockET_EE
DA:100,3
DA:102,3
DA:103,0
DA:104,3
DA:109,2
DA:111,2
DA:147,3
DA:151,4
DA:152,2
DA:153,1
DA:154,2
DA:170,3
DA:175,3
DA:176,9
DA:177,6
DA:178,6
DA:189,2
DA:192,2
DA:193,2
DA:195,2
DA:197,2
DA:198,2
DA:201,2
DA:203,6
DA:204,8
end_of_record
SF:/home/atohs/cpp/CppLearning/build/_deps/googletest-src/googletest/include/gtest/gtest-assertion-result.h
FN:176,_ZNK7testing15AssertionResultcvbEv
FNDA:8,_ZNK7testing15AssertionResultcvbEv
FN:185,_ZNK7testing15AssertionResult7messageEv
FNDA:0,_ZNK7testing15AssertionResult7messageEv
FN:189,_ZNK7testing15AssertionResult15failure_messageEv
FNDA:0,_ZNK7testing15AssertionResult15failure_messageEv
DA:176,8
DA:185,0
DA:186,0
DA:189,0
end_of_record
SF:/home/atohs/cpp/CppLearning/build/_deps/googletest-src/googletest/include/gtest/internal/gtest-internal.h
FN:419,_ZN7testing8internal9GetTypeIdI14AsyncQueueTestEEPKvv
FNDA:6,_ZN7testing8internal9GetTypeIdI14AsyncQueueTestEEPKvv
FN:438,_ZN7testing8internal15TestFactoryBaseD0Ev
FNDA:0,_ZN7testing8internal15TestFactoryBaseD0Ev
FN:438,_ZN7testing8internal15TestFactoryBaseD2Ev
FNDA:6,_ZN7testing8internal15TestFactoryBaseD2Ev
FN:445,_ZN7testing8internal15TestFactoryBaseC2Ev
FNDA:6,_ZN7testing8internal15TestFactoryBaseC2Ev
FN:457,_ZN7testing8internal15TestFactoryImplI27AsyncQueueTest_Emplace_TestE10CreateTestEv
FNDA:1,_ZN7testing8internal15TestFactoryImplI27AsyncQueueTest_Emplace_TestE10CreateTestEv
FN:457,_ZN7testing8internal15TestFactoryImplI42AsyncQueueTest_LeftValueReferencePush_TestE10CreateTestEv
FNDA:1,_ZN7testing8internal15TestFactoryImplI42AsyncQueueTest_LeftValueReferencePush_TestE10CreateTestEv
FN:457,_ZN7testing8internal15TestFactoryImplI43AsyncQueueTest_RightValueReferencePush_TestE10CreateTestEv
FNDA:1,_ZN7testing8internal15TestFactoryImplI43AsyncQueueTest_RightValueReferencePush_TestE10CreateTestEv
FN:457,_ZN7testing8internal15TestFactoryImplI31AsyncQueueTest_TimedOutPop_TestE10CreateTestEv
FNDA:1,_ZN7testing8internal15TestFactoryImplI31AsyncQueueTest_TimedOutPop_TestE10CreateTestEv
FN:457,_ZN7testing8internal15TestFactoryImplI30AsyncQueueTest_UseThread1_TestE10CreateTestEv
FNDA:1,_ZN7testing8internal15TestFactoryImplI30AsyncQueueTest_UseThread1_TestE10CreateTestEv
FN:457,_ZN7testing8internal15TestFactoryImplI30AsyncQueueTest_UseThread2_TestE10CreateTestEv
FNDA:1,_ZN7testing8internal15TestFactoryImplI30AsyncQueueTest_UseThread2_TestE10CreateTestEv
FN:478,_ZN7testing8internal12CodeLocationC2ENSt7__cxx1112basic_stringIcSt11char_traitsIcESaIcEEEi
FNDA:6,_ZN7testing8internal12CodeLocationC2ENSt7__cxx1112basic_stringIcSt11char_traitsIcESaIcEEEi
FN:491,_ZN7testing8internal19GetNotDefaultOrNullEPFvvES2_
FNDA:24,_ZN7testing8internal19GetNotDefaultOrNullEPFvvES2_
FN:506,_ZN7testing8internal16SuiteApiResolverI14AsyncQueueTestE19GetSetUpCaseOrSuiteEPKci
FNDA:6,_ZN7testing8internal16SuiteApiResolverI14AsyncQueueTestE19GetSetUpCaseOrSuiteEPKci
FN:527,_ZN7testing8internal16SuiteApiResolverI14AsyncQueueTestE22GetTearDownCaseOrSuiteEPKci
FNDA:6,_ZN7testing8internal16SuiteApiResolverI14AsyncQueueTestE22GetTearDownCaseOrSuiteEPKci
DA:419,6
DA:424,6
DA:438,0
DA:438,6
DA:445,6
DA:457,1
DA:457,1
DA:457,1
DA:457,1
DA:457,1
DA:457,1
DA:478,6
DA:479,6
DA:491,24
DA:493,24
DA:506,6
DA:510,6
DA:512,6
DA:514,6
DA:517,0
DA:519,6
DA:527,6
DA:531,6
DA:533,6
DA:535,6
DA:538,0
DA:540,6
end_of_record
SF:/usr/include/c++/11/compare
FN:59,_ZNSt9__cmp_cat8__unspecC2EPS0_
FNDA:6,_ZNSt9__cmp_cat8__unspecC2EPS0_
FN:264,_ZStltSt15strong_orderingNSt9__cmp_cat8__unspecE
FNDA:5,_ZStltSt15strong_orderingNSt9__cmp_cat8__unspecE
FN:272,_ZStleSt15strong_orderingNSt9__cmp_cat8__unspecE
FNDA:1,_ZStleSt15strong_orderingNSt9__cmp_cat8__unspecE
DA:59,6
DA:264,5
DA:265,5
DA:272,1
DA:273,1
end_of_record
SF:/usr/include/c++/11/new
FN:174,_ZnwmPv
FNDA:37,_ZnwmPv
DA:174,37
DA:175,37
end_of_record
SF:/usr/include/c++/11/bits/stl_construct.h
FN:80,_ZSt10destroy_atIiEvPT_
FNDA:5,_ZSt10destroy_atIiEvPT_
FN:94,_ZSt12construct_atIiJKiEEDTgsnwcvPvLi0E_T_pispcl7declvalIT0_EEEEPS2_DpOS3_
FNDA:1,_ZSt12construct_atIiJKiEEDTgsnwcvPvLi0E_T_pispcl7declvalIT0_EEEEPS2_DpOS3_
FN:94,_ZSt12construct_atIiJRKiEEDTgsnwcvPvLi0E_T_pispcl7declvalIT0_EEEEPS3_DpOS4_
FNDA:4,_ZSt12construct_atIiJRKiEEDTgsnwcvPvLi0E_T_pispcl7declvalIT0_EEEEPS3_DpOS4_
DA:80,5
DA:88,5
DA:89,5
DA:94,1
DA:97,1
DA:94,4
DA:97,4
end_of_record
SF:/usr/include/c++/11/chrono
FN:211,_ZNSt6chrono20__duration_cast_implINS_8durationIlSt5ratioILl1ELl1000000000EEEES2_ILl1ELl1EElLb1ELb1EE6__castIlS3_EES4_RKNS1_IT_T0_EE
FNDA:2,_ZNSt6chrono20__duration_cast_implINS_8durationIlSt5ratioILl1ELl1000000000EEEES2_ILl1ELl1EElLb1ELb1EE6__castIlS3_EES4_RKNS1_IT_T0_EE
FN:223,_ZNSt6chrono20__duration_cast_implINS_8durationIlSt5ratioILl1ELl1EEEES2_ILl1ELl1000EElLb1ELb0EE6__castIlS5_EES4_RKNS1_IT_T0_EE
FNDA:1,_ZNSt6chrono20__duration_cast_implINS_8durationIlSt5ratioILl1ELl1EEEES2_ILl1ELl1000EElLb1ELb0EE6__castIlS5_EES4_RKNS1_IT_T0_EE
FN:223,_ZNSt6chrono20__duration_cast_implINS_8durationIlSt5ratioILl1ELl1EEEES2_ILl1ELl1000000000EElLb1ELb0EE6__castIlS5_EES4_RKNS1_IT_T0_EE
FNDA:2,_ZNSt6chrono20__duration_cast_implINS_8durationIlSt5ratioILl1ELl1EEEES2_ILl1ELl1000000000EElLb1ELb0EE6__castIlS5_EES4_RKNS1_IT_T0_EE
FN:236,_ZNSt6chrono20__duration_cast_implINS_8durationIlSt5ratioILl1ELl1000000000EEEES2_ILl1000000ELl1EElLb0ELb1EE6__castIlS2_ILl1ELl1000EEEES4_RKNS1_IT_T0_EE
FNDA:7,_ZNSt6chrono20__duration_cast_implINS_8durationIlSt5ratioILl1ELl1000000000EEEES2_ILl1000000ELl1EElLb0ELb1EE6__castIlS2_ILl1ELl1000EEEES4_RKNS1_IT_T0_EE
FN:236,_ZNSt6chrono20__duration_cast_implINS_8durationIlSt5ratioILl1ELl1000000000EEEES2_ILl1000000000ELl1EElLb0ELb1EE6__castIlS2_ILl1ELl1EEEES4_RKNS1_IT_T0_EE
FNDA:11,_ZNSt6chrono20__duration_cast_implINS_8durationIlSt5ratioILl1ELl1000000000EEEES2_ILl1000000000ELl1EElLb0ELb1EE6__castIlS2_ILl1ELl1EEEES4_RKNS1_IT_T0_EE
FN:236,_ZNSt6chrono20__duration_cast_implINS_8durationIlSt5ratioILl1ELl1000EEEES2_ILl1000ELl1EElLb0ELb1EE6__castIlS2_ILl1ELl1EEEES4_RKNS1_IT_T0_EE
FNDA:2,_ZNSt6chrono20__duration_cast_implINS_8durationIlSt5ratioILl1ELl1000EEEES2_ILl1000ELl1EElLb0ELb1EE6__castIlS2_ILl1ELl1EEEES4_RKNS1_IT_T0_EE
FN:267,_ZNSt6chrono13duration_castINS_8durationIlSt5ratioILl1ELl1EEEElS2_ILl1ELl1000EEEENSt9enable_ifIXsrNS_13__is_durationIT_EE5valueES8_E4typeERKNS1_IT0_T1_EE
FNDA:1,_ZNSt6chrono13duration_castINS_8durationIlSt5ratioILl1ELl1EEEElS2_ILl1ELl1000EEEENSt9enable_ifIXsrNS_13__is_durationIT_EE5valueES8_E4typeERKNS1_IT0_T1_EE
FN:267,_ZNSt6chrono13duration_castINS_8durationIlSt5ratioILl1ELl1000000000EEEElS2_ILl1ELl1EEEENSt9enable_ifIXsrNS_13__is_durationIT_EE5valueES8_E4typeERKNS1_IT0_T1_EE
FNDA:11,_ZNSt6chrono13duration_castINS_8durationIlSt5ratioILl1ELl1000000000EEEElS2_ILl1ELl1EEEENSt9enable_ifIXsrNS_13__is_durationIT_EE5valueES8_E4typeERKNS1_IT0_T1_EE
FN:267,_ZNSt6chrono13duration_castINS_8durationIlSt5ratioILl1ELl1EEEElS2_ILl1ELl1000000000EEEENSt9enable_ifIXsrNS_13__is_durationIT_EE5valueES8_E4typeERKNS1_IT0_T1_EE
FNDA:2,_ZNSt6chrono13duration_castINS_8durationIlSt5ratioILl1ELl1EEEElS2_ILl1ELl1000000000EEEENSt9enable_ifIXsrNS_13__is_durationIT_EE5valueES8_E4typeERKNS1_IT0_T1_EE
FN:267,_ZNSt6chrono13duration_castINS_8durationIlSt5ratioILl1ELl1000EEEElS2_ILl1ELl1EEEENSt9enable_ifIXsrNS_13__is_durationIT_EE5valueES8_E4typeERKNS1_IT0_T1_EE
FNDA:2,_ZNSt6chrono13duration_castINS_8durationIlSt5ratioILl1ELl1000EEEElS2_ILl1ELl1EEEENSt9enable_ifIXsrNS_13__is_durationIT_EE5valueES8_E4typeERKNS1_IT0_T1_EE
FN:267,_ZNSt6chrono13duration_castINS_8durationIlSt5ratioILl1ELl1000000000EEEElS3_EENSt9enable_ifIXsrNS_13__is_durationIT_EE5valueES7_E4typeERKNS1_IT0_T1_EE
FNDA:2,_ZNSt6chrono13duration_castINS_8durationIlSt5ratioILl1ELl1000000000EEEElS3_EENSt9enable_ifIXsrNS_13__is_durationIT_EE5valueES7_E4typeERKNS1_IT0_T1_EE
FN:267,_ZNSt6chrono13duration_castINS_8durationIlSt5ratioILl1ELl1000000000EEEElS2_ILl1ELl1000EEEENSt9enable_ifIXsrNS_13__is_durationIT_EE5valueES8_E4typeERKNS1_IT0_T1_EE
FNDA:7,_ZNSt6chrono13duration_castINS_8durationIlSt5ratioILl1ELl1000000000EEEElS2_ILl1ELl1000EEEENSt9enable_ifIXsrNS_13__is_durationIT_EE5valueES8_E4typeERKNS1_IT0_T1_EE
FN:360,_ZNSt6chrono4ceilINS_8durationIlSt5ratioILl1ELl1000000000EEEElS2_ILl1ELl1000EEEENSt9enable_ifIXsrNS_13__is_durationIT_EE5valueES8_E4typeERKNS1_IT0_T1_EE
FNDA:3,_ZNSt6chrono4ceilINS_8durationIlSt5ratioILl1ELl1000000000EEEElS2_ILl1ELl1000EEEENSt9enable_ifIXsrNS_13__is_durationIT_EE5valueES8_E4typeERKNS1_IT0_T1_EE
FN:432,_ZNSt6chrono15duration_valuesIlE4zeroEv
FNDA:10,_ZNSt6chrono15duration_valuesIlE4zeroEv
FN:521,_ZNSt6chrono8durationIlSt5ratioILl1ELl1EEEC2IivEERKT_
FNDA:1,_ZNSt6chrono8durationIlSt5ratioILl1ELl1EEEC2IivEERKT_
FN:521,_ZNSt6chrono8durationIlSt5ratioILl1ELl1000EEEC2IivEERKT_
FNDA:3,_ZNSt6chrono8durationIlSt5ratioILl1ELl1000EEEC2IivEERKT_
FN:521,_ZNSt6chrono8durationIlSt5ratioILl1ELl1000000000EEEC1IlvEERKT_
FNDA:42,_ZNSt6chrono8durationIlSt5ratioILl1ELl1000000000EEEC1IlvEERKT_
FN:521,_ZNSt6chrono8durationIlSt5ratioILl1ELl1000EEEC2IlvEERKT_
FNDA:30,_ZNSt6chrono8durationIlSt5ratioILl1ELl1000EEEC2IlvEERKT_
FN:521,_ZNSt6chrono8durationIlSt5ratioILl1ELl1000000000EEEC2IivEERKT_
FNDA:0,_ZNSt6chrono8durationIlSt5ratioILl1ELl1000000000EEEC2IivEERKT_
FN:521,_ZNSt6chrono8durationIlSt5ratioILl1ELl1EEEC1IlvEERKT_
FNDA:12,_ZNSt6chrono8durationIlSt5ratioILl1ELl1EEEC1IlvEERKT_
FN:529,_ZNSt6chrono8durationIlSt5ratioILl1ELl1000000000EEEC2IlS1_ILl1ELl1EEvEERKNS0_IT_T0_EE
FNDA:2,_ZNSt6chrono8durationIlSt5ratioILl1ELl1000000000EEEC2IlS1_ILl1ELl1EEvEERKNS0_IT_T0_EE
FN:529,_ZNSt6chrono8durationIlSt5ratioILl1ELl1000EEEC2IlS1_ILl1ELl1EEvEERKNS0_IT_T0_EE
FNDA:2,_ZNSt6chrono8durationIlSt5ratioILl1ELl1000EEEC2IlS1_ILl1ELl1EEvEERKNS0_IT_T0_EE
FN:529,_ZNSt6chrono8durationIlSt5ratioILl1ELl1000000000EEEC1IlS1_ILl1ELl1000EEvEERKNS0_IT_T0_EE
FNDA:3,_ZNSt6chrono8durationIlSt5ratioILl1ELl1000000000EEEC1IlS1_ILl1ELl1000EEvEERKNS0_IT_T0_EE
FN:537,_ZNKSt6chrono8durationIlSt5ratioILl1ELl1EEE5countEv
FNDA:16,_ZNKSt6chrono8durationIlSt5ratioILl1ELl1EEE5countEv
FN:537,_ZNKSt6chrono8durationIlSt5ratioILl1ELl1000EEE5countEv
FNDA:43,_ZNKSt6chrono8durationIlSt5ratioILl1ELl1000EEE5countEv
FN:537,_ZNKSt6chrono8durationIlSt5ratioILl1ELl1000000000EEE5countEv
FNDA:83,_ZNKSt6chrono8durationIlSt5ratioILl1ELl1000000000EEE5countEv
FN:623,_ZNSt6chrono8durationIlSt5ratioILl1ELl1000EEE4zeroEv
FNDA:10,_ZNSt6chrono8durationIlSt5ratioILl1ELl1000EEE4zeroEv
FN:646,_ZNSt6chronoplIlSt5ratioILl1ELl1000000000EElS2_EENSt11common_typeIJNS_8durationIT_T0_EENS4_IT1_T2_EEEE4typeERKS7_RKSA_
FNDA:3,_ZNSt6chronoplIlSt5ratioILl1ELl1000000000EElS2_EENSt11common_typeIJNS_8durationIT_T0_EENS4_IT1_T2_EEEE4typeERKS7_RKSA_
FN:660,_ZNSt6chronomiIlSt5ratioILl1ELl1000EElS1_ILl1ELl1EEEENSt11common_typeIJNS_8durationIT_T0_EENS5_IT1_T2_EEEE4typeERKS8_RKSB_
FNDA:1,_ZNSt6chronomiIlSt5ratioILl1ELl1000EElS1_ILl1ELl1EEEENSt11common_typeIJNS_8durationIT_T0_EENS5_IT1_T2_EEEE4typeERKS8_RKSB_
FN:660,_ZNSt6chronomiIlSt5ratioILl1ELl1000000000EElS1_ILl1ELl1EEEENSt11common_typeIJNS_8durationIT_T0_EENS5_IT1_T2_EEEE4typeERKS8_RKSB_
FNDA:2,_ZNSt6chronomiIlSt5ratioILl1ELl1000000000EElS1_ILl1ELl1EEEENSt11common_typeIJNS_8durationIT_T0_EENS5_IT1_T2_EEEE4typeERKS8_RKSB_
FN:760,_ZNSt6chronoeqIlSt5ratioILl1ELl1000EElS2_EEbRKNS_8durationIT_T0_EERKNS3_IT1_T2_EE
FNDA:6,_ZNSt6chronoeqIlSt5ratioILl1ELl1000EElS2_EEbRKNS_8durationIT_T0_EERKNS3_IT1_T2_EE
FN:786,_ZNSt6chronossIlSt5ratioILl1ELl1000EElS2_EEDaRKNS_8durationIT_T0_EERKNS3_IT1_T2_EE
FNDA:1,_ZNSt6chronossIlSt5ratioILl1ELl1000EElS2_EEDaRKNS_8durationIT_T0_EERKNS3_IT1_T2_EE
FN:786,_ZNSt6chronossIlSt5ratioILl1ELl1000000000EElS1_ILl1ELl1000EEEEDaRKNS_8durationIT_T0_EERKNS4_IT1_T2_EE
FNDA:3,_ZNSt6chronossIlSt5ratioILl1ELl1000000000EElS1_ILl1ELl1000EEEEDaRKNS_8durationIT_T0_EERKNS4_IT1_T2_EE
FN:786,_ZNSt6chronossIlSt5ratioILl1ELl1000000000EElS2_EEDaRKNS_8durationIT_T0_EERKNS3_IT1_T2_EE
FNDA:2,_ZNSt6chronossIlSt5ratioILl1ELl1000000000EElS2_EEDaRKNS_8durationIT_T0_EERKNS3_IT1_T2_EE
FN:885,_ZNSt6chrono10time_pointINS_3_V212steady_clockENS_8durationIlSt5ratioILl1ELl1000000000EEEEEC2ERKS6_
FNDA:3,_ZNSt6chrono10time_pointINS_3_V212steady_clockENS_8durationIlSt5ratioILl1ELl1000000000EEEEEC2ERKS6_
FN:885,_ZNSt6chrono10time_pointINS_3_V212steady_clockENS_8durationIlSt5ratioILl1ELl1EEEEEC2ERKS6_
FNDA:2,_ZNSt6chrono10time_pointINS_3_V212steady_clockENS_8durationIlSt5ratioILl1ELl1EEEEEC2ERKS6_
FN:898,_ZNKSt6chrono10time_pointINS_3_V212steady_clockENS_8durationIlSt5ratioILl1ELl1000000000EEEEE16time_since_epochEv
FNDA:27,_ZNKSt6chrono10time_pointINS_3_V212steady_clockENS_8durationIlSt5ratioILl1ELl1000000000EEEEE16time_since_epochEv
FN:898,_ZNKSt6chrono10time_pointINS_3_V212steady_clockENS_8durationIlSt5ratioILl1ELl1EEEEE16time_since_epochEv
FNDA:4,_ZNKSt6chrono10time_pointINS_3_V212steady_clockENS_8durationIlSt5ratioILl1ELl1EEEEE16time_since_epochEv
FN:957,_ZNSt6chrono15time_point_castINS_8durationIlSt5ratioILl1ELl1EEEENS_3_V212steady_clockENS1_IlS2_ILl1ELl1000000000EEEEEENSt9enable_ifIXsrNS_13__is_durationIT_EE5valueENS_10time_pointIT0_SB_EEE4typeERKNSD_ISE_T1_EE
FNDA:2,_ZNSt6chrono15time_point_castINS_8durationIlSt5ratioILl1ELl1EEEENS_3_V212steady_clockENS1_IlS2_ILl1ELl1000000000EEEEEENSt9enable_ifIXsrNS_13__is_durationIT_EE5valueENS_10time_pointIT0_SB_EEE4typeERKNSD_ISE_T1_EE
FN:1002,_ZNSt6chronoplINS_3_V212steady_clockENS_8durationIlSt5ratioILl1ELl1000000000EEEElS5_EENS_10time_pointIT_NSt11common_typeIJT0_NS3_IT1_T2_EEEE4typeEEERKNS7_IS8_SA_EERKSD_
FNDA:3,_ZNSt6chronoplINS_3_V212steady_clockENS_8durationIlSt5ratioILl1ELl1000000000EEEElS5_EENS_10time_pointIT_NSt11common_typeIJT0_NS3_IT1_T2_EEEE4typeEEERKNS7_IS8_SA_EERKSD_
FN:1042,_ZNSt6chronomiINS_3_V212steady_clockENS_8durationIlSt5ratioILl1ELl1000000000EEEENS3_IlS4_ILl1ELl1EEEEEENSt11common_typeIJT0_T1_EE4typeERKNS_10time_pointIT_SA_EERKNSE_ISF_SB_EE
FNDA:2,_ZNSt6chronomiINS_3_V212steady_clockENS_8durationIlSt5ratioILl1ELl1000000000EEEENS3_IlS4_ILl1ELl1EEEEEENSt11common_typeIJT0_T1_EE4typeERKNS_10time_pointIT_SA_EERKNSE_ISF_SB_EE
FN:1062,_ZNSt6chronossINS_3_V212steady_clockENS_8durationIlSt5ratioILl1ELl1000000000EEEES6_EEDaRKNS_10time_pointIT_T0_EERKNS7_IS8_T1_EE
FNDA:2,_ZNSt6chronossINS_3_V212steady_clockENS_8durationIlSt5ratioILl1ELl1000000000EEEES6_EEDaRKNS_10time_pointIT_T0_EERKNS7_IS8_T1_EE
DA:211,2
DA:214,2
DA:223,1
DA:226,2
DA:227,1
DA:223,2
DA:226,4
DA:227,2
DA:236,2
DA:239,4
DA:240,2
DA:236,11
DA:239,22
DA:240,11
DA:236,7
DA:239,14
DA:240,7
DA:267,2
DA:276,2
DA:267,11
DA:276,11
DA:267,1
DA:276,1
DA:267,7
DA:276,7
DA:267,2
DA:276,2
DA:267,2
DA:276,2
DA:360,3
DA:362,3
DA:363,3
DA:364,0
DA:365,3
DA:432,10
DA:433,10
DA:521,0
DA:522,0
DA:521,30
DA:522,30
DA:521,1
DA:522,1
DA:521,3
DA:522,3
DA:521,12
DA:522,12
DA:521,42
DA:522,42
DA:529,2
DA:530,2
DA:529,2
DA:530,2
DA:529,3
DA:530,3
DA:537,43
DA:538,43
DA:537,16
DA:538,16
DA:537,83
DA:538,83
DA:623,10
DA:624,10
DA:646,3
DA:652,3
DA:660,2
DA:666,2
DA:660,1
DA:666,1
DA:760,6
DA:766,6
DA:786,1
DA:791,2
DA:786,3
DA:791,6
DA:786,2
DA:791,4
DA:885,2
DA:886,2
DA:887,2
DA:885,3
DA:886,3
DA:887,3
DA:898,4
DA:899,4
DA:898,27
DA:899,27
DA:957,2
DA:960,2
DA:1002,3
DA:1008,3
DA:1042,2
DA:1044,4
DA:1062,2
DA:1064,4
end_of_record
SF:/usr/include/c++/11/bits/stl_deque.h
FN:96,_ZSt16__deque_buf_sizem
FNDA:36,_ZSt16__deque_buf_sizem
FN:131,_ZNSt15_Deque_iteratorIiRiPiE14_S_buffer_sizeEv
FNDA:12,_ZNSt15_Deque_iteratorIiRiPiE14_S_buffer_sizeEv
FN:151,_ZNSt15_Deque_iteratorIiRiPiEC2Ev
FNDA:12,_ZNSt15_Deque_iteratorIiRiPiEC2Ev
FN:168,_ZNSt15_Deque_iteratorIiRiPiEC2ERKS2_
FNDA:19,_ZNSt15_Deque_iteratorIiRiPiEC2ERKS2_
FN:180,_ZNKSt15_Deque_iteratorIiRiPiEdeEv
FNDA:7,_ZNKSt15_Deque_iteratorIiRiPiEdeEv
FN:208,_ZNSt15_Deque_iteratorIiRiPiEmmEv
FNDA:2,_ZNSt15_Deque_iteratorIiRiPiEmmEv
FN:260,_ZNSt15_Deque_iteratorIiRiPiE11_M_set_nodeEPS1_
FNDA:12,_ZNSt15_Deque_iteratorIiRiPiE11_M_set_nodeEPS1_
FN:268,_ZSteqRKSt15_Deque_iteratorIiRiPiES4_
FNDA:8,_ZSteqRKSt15_Deque_iteratorIiRiPiES4_
FN:353,_ZStmiRKSt15_Deque_iteratorIiRiPiES4_
FNDA:0,_ZStmiRKSt15_Deque_iteratorIiRiPiES4_
FN:437,_ZNSt11_Deque_baseIiSaIiEEC2Ev
FNDA:6,_ZNSt11_Deque_baseIiSaIiEEC2Ev
FN:495,_ZNSt11_Deque_baseIiSaIiEE16_Deque_impl_dataC2Ev
FNDA:6,_ZNSt11_Deque_baseIiSaIiEE16_Deque_impl_dataC2Ev
FN:524,_ZNSt11_Deque_baseIiSaIiEE11_Deque_implC2Ev
FNDA:6,_ZNSt11_Deque_baseIiSaIiEE11_Deque_implC2Ev
FN:547,_ZNSt11_Deque_baseIiSaIiEE19_M_get_Tp_allocatorEv
FNDA:11,_ZNSt11_Deque_baseIiSaIiEE19_M_get_Tp_allocatorEv
FN:551,_ZNKSt11_Deque_baseIiSaIiEE19_M_get_Tp_allocatorEv
FNDA:12,_ZNKSt11_Deque_baseIiSaIiEE19_M_get_Tp_allocatorEv
FN:555,_ZNKSt11_Deque_baseIiSaIiEE20_M_get_map_allocatorEv
FNDA:12,_ZNKSt11_Deque_baseIiSaIiEE20_M_get_map_allocatorEv
FN:559,_ZNSt11_Deque_baseIiSaIiEE16_M_allocate_nodeEv
FNDA:6,_ZNSt11_Deque_baseIiSaIiEE16_M_allocate_nodeEv
FN:566,_ZNSt11_Deque_baseIiSaIiEE18_M_deallocate_nodeEPi
FNDA:6,_ZNSt11_Deque_baseIiSaIiEE18_M_deallocate_nodeEPi
FN:573,_ZNSt11_Deque_baseIiSaIiEE15_M_allocate_mapEm
FNDA:6,_ZNSt11_Deque_baseIiSaIiEE15_M_allocate_mapEm
FN:580,_ZNSt11_Deque_baseIiSaIiEE17_M_deallocate_mapEPPim
FNDA:6,_ZNSt11_Deque_baseIiSaIiEE17_M_deallocate_mapEPPim
FN:596,_ZNSt11_Deque_baseIiSaIiEED2Ev
FNDA:6,_ZNSt11_Deque_baseIiSaIiEED2Ev
FN:617,_ZNSt11_Deque_baseIiSaIiEE17_M_initialize_mapEm
FNDA:6,_ZNSt11_Deque_baseIiSaIiEE17_M_initialize_mapEm
FN:656,_ZNSt11_Deque_baseIiSaIiEE15_M_create_nodesEPPiS3_
FNDA:6,_ZNSt11_Deque_baseIiSaIiEE15_M_create_nodesEPPiS3_
FN:674,_ZNSt11_Deque_baseIiSaIiEE16_M_destroy_nodesEPPiS3_
FNDA:6,_ZNSt11_Deque_baseIiSaIiEE16_M_destroy_nodesEPPiS3_
FN:834,_ZNSt5dequeIiSaIiEEC2Ev
FNDA:6,_ZNSt5dequeIiSaIiEEC2Ev
FN:1006,_ZNSt5dequeIiSaIiEED2Ev
FNDA:6,_ZNSt5dequeIiSaIiEED2Ev
FN:1128,_ZNSt5dequeIiSaIiEE5beginEv
FNDA:11,_ZNSt5dequeIiSaIiEE5beginEv
FN:1145,_ZNSt5dequeIiSaIiEE3endEv
FNDA:8,_ZNSt5dequeIiSaIiEE3endEv
FN:1233,_ZNKSt5dequeIiSaIiEE4sizeEv
FNDA:0,_ZNKSt5dequeIiSaIiEE4sizeEv
FN:1238,_ZNKSt5dequeIiSaIiEE8max_sizeEv
FNDA:0,_ZNKSt5dequeIiSaIiEE8max_sizeEv
FN:1311,_ZNKSt5dequeIiSaIiEE5emptyEv
FNDA:8,_ZNKSt5dequeIiSaIiEE5emptyEv
FN:1405,_ZNSt5dequeIiSaIiEE5frontEv
FNDA:5,_ZNSt5dequeIiSaIiEE5frontEv
FN:1427,_ZNSt5dequeIiSaIiEE4backEv
FNDA:2,_ZNSt5dequeIiSaIiEE4backEv
FN:1496,_ZNSt5dequeIiSaIiEE9push_backERKi
FNDA:3,_ZNSt5dequeIiSaIiEE9push_backERKi
FN:1532,_ZNSt5dequeIiSaIiEE9pop_frontEv
FNDA:5,_ZNSt5dequeIiSaIiEE9pop_frontEv
FN:1834,_ZNSt5dequeIiSaIiEE11_S_max_sizeERKS0_
FNDA:0,_ZNSt5dequeIiSaIiEE11_S_max_sizeERKS0_
FN:2045,_ZNSt5dequeIiSaIiEE15_M_destroy_dataESt15_Deque_iteratorIiRiPiES5_RKS0_
FNDA:6,_ZNSt5dequeIiSaIiEE15_M_destroy_dataESt15_Deque_iteratorIiRiPiES5_RKS0_
FN:2126,_ZNSt5dequeIiSaIiEE22_M_reserve_map_at_backEm
FNDA:0,_ZNSt5dequeIiSaIiEE22_M_reserve_map_at_backEm
DA:96,36
DA:98,36
DA:131,12
DA:132,12
DA:151,12
DA:152,12
DA:168,19
DA:169,19
DA:170,19
DA:180,7
DA:181,7
DA:208,2
DA:210,2
DA:212,0
DA:213,0
DA:215,2
DA:216,2
DA:260,12
DA:262,12
DA:263,12
DA:264,12
DA:265,12
DA:268,8
DA:269,8
DA:353,0
DA:355,0
DA:356,0
DA:357,0
DA:358,0
DA:437,6
DA:438,6
DA:439,6
DA:495,6
DA:496,6
DA:497,6
DA:524,6
DA:526,6
DA:527,6
DA:547,11
DA:548,11
DA:551,12
DA:552,12
DA:555,12
DA:556,12
DA:559,6
DA:562,6
DA:566,6
DA:569,6
DA:570,6
DA:573,6
DA:575,6
DA:576,12
DA:577,6
DA:580,6
DA:582,6
DA:583,6
DA:584,6
DA:596,6
DA:599,6
DA:601,6
DA:602,6
DA:603,6
DA:605,6
DA:617,6
DA:620,6
DA:623,12
DA:624,12
DA:625,6
DA:632,6
DA:633,6
DA:634,6
DA:637,6
DA:638,0
DA:640,0
DA:641,0
DA:642,0
DA:643,0
DA:646,6
DA:647,6
DA:648,6
DA:649,12
DA:650,6
DA:651,6
DA:652,6
DA:656,6
DA:662,12
DA:663,6
DA:665,0
DA:667,0
DA:668,0
DA:670,6
DA:674,6
DA:678,12
DA:679,6
DA:680,6
DA:834,6
DA:1006,6
DA:1007,6
DA:1128,11
DA:1129,11
DA:1145,8
DA:1146,8
DA:1233,0
DA:1234,0
DA:1238,0
DA:1239,0
DA:1311,8
DA:1312,8
DA:1405,5
DA:1408,5
DA:1427,2
DA:1430,2
DA:1431,2
DA:1432,2
DA:1496,3
DA:1498,3
DA:1499,3
DA:1501,3
DA:1503,3
DA:1506,0
DA:1507,3
DA:1532,5
DA:1535,5
DA:1536,5
DA:1538,5
DA:1540,5
DA:1543,0
DA:1544,5
DA:1834,0
DA:1836,0
DA:1837,0
DA:1838,0
DA:2045,6
DA:2050,6
DA:2126,0
DA:2128,0
DA:2129,0
DA:2130,0
DA:2131,0
end_of_record
SF:/usr/include/c++/11/bits/std_thread.h
FN:86,_ZNSt6thread2idC2Ev
FNDA:8,_ZNSt6thread2idC2Ev
FN:127,_ZNSt6threadC2IZN30AsyncQueueTest_UseThread1_Test8TestBodyEvEUlvE_JEvEEOT_DpOT0_
FNDA:1,_ZNSt6threadC2IZN30AsyncQueueTest_UseThread1_Test8TestBodyEvEUlvE_JEvEEOT_DpOT0_
FN:127,_ZNSt6threadC2IZN30AsyncQueueTest_UseThread1_Test8TestBodyEvEUlvE0_JEvEEOT_DpOT0_
FNDA:1,_ZNSt6threadC2IZN30AsyncQueueTest_UseThread1_Test8TestBodyEvEUlvE0_JEvEEOT_DpOT0_
FN:127,_ZNSt6threadC2IZN30AsyncQueueTest_UseThread2_Test8TestBodyEvEUlvE_JEvEEOT_DpOT0_
FNDA:1,_ZNSt6threadC2IZN30AsyncQueueTest_UseThread2_Test8TestBodyEvEUlvE_JEvEEOT_DpOT0_
FN:127,_ZNSt6threadC2IZN30AsyncQueueTest_UseThread2_Test8TestBodyEvEUlvE0_JEvEEOT_DpOT0_
FNDA:1,_ZNSt6threadC2IZN30AsyncQueueTest_UseThread2_Test8TestBodyEvEUlvE0_JEvEEOT_DpOT0_
FN:149,_ZNSt6threadD2Ev
FNDA:4,_ZNSt6threadD2Ev
FN:175,_ZNKSt6thread8joinableEv
FNDA:4,_ZNKSt6thread8joinableEv
FN:206,_ZNSt6thread11_State_implINS_8_InvokerISt5tupleIJZN30AsyncQueueTest_UseThread1_Test8TestBodyEvEUlvE_EEEEEC2IJS4_EEEDpOT_
FNDA:1,_ZNSt6thread11_State_implINS_8_InvokerISt5tupleIJZN30AsyncQueueTest_UseThread1_Test8TestBodyEvEUlvE_EEEEEC2IJS4_EEEDpOT_
FN:206,_ZNSt6thread11_State_implINS_8_InvokerISt5tupleIJZN30AsyncQueueTest_UseThread1_Test8TestBodyEvEUlvE0_EEEEEC2IJS4_EEEDpOT_
FNDA:1,_ZNSt6thread11_State_implINS_8_InvokerISt5tupleIJZN30AsyncQueueTest_UseThread1_Test8TestBodyEvEUlvE0_EEEEEC2IJS4_EEEDpOT_
FN:206,_ZNSt6thread11_State_implINS_8_InvokerISt5tupleIJZN30AsyncQueueTest_UseThread2_Test8TestBodyEvEUlvE_EEEEEC2IJS4_EEEDpOT_
FNDA:1,_ZNSt6thread11_State_implINS_8_InvokerISt5tupleIJZN30AsyncQueueTest_UseThread2_Test8TestBodyEvEUlvE_EEEEEC2IJS4_EEEDpOT_
FN:206,_ZNSt6thread11_State_implINS_8_InvokerISt5tupleIJZN30AsyncQueueTest_UseThread2_Test8TestBodyEvEUlvE0_EEEEEC2IJS4_EEEDpOT_
FNDA:1,_ZNSt6thread11_State_implINS_8_InvokerISt5tupleIJZN30AsyncQueueTest_UseThread2_Test8TestBodyEvEUlvE0_EEEEEC2IJS4_EEEDpOT_
FN:211,_ZNSt6thread11_State_implINS_8_InvokerISt5tupleIJZN30AsyncQueueTest_UseThread1_Test8TestBodyEvEUlvE_EEEEE6_M_runEv
FNDA:1,_ZNSt6thread11_State_implINS_8_InvokerISt5tupleIJZN30AsyncQueueTest_UseThread1_Test8TestBodyEvEUlvE_EEEEE6_M_runEv
FN:211,_ZNSt6thread11_State_implINS_8_InvokerISt5tupleIJZN30AsyncQueueTest_UseThread1_Test8TestBodyEvEUlvE0_EEEEE6_M_runEv
FNDA:1,_ZNSt6thread11_State_implINS_8_InvokerISt5tupleIJZN30AsyncQueueTest_UseThread1_Test8TestBodyEvEUlvE0_EEEEE6_M_runEv
FN:211,_ZNSt6thread11_State_implINS_8_InvokerISt5tupleIJZN30AsyncQueueTest_UseThread2_Test8TestBodyEvEUlvE_EEEEE6_M_runEv
FNDA:1,_ZNSt6thread11_State_implINS_8_InvokerISt5tupleIJZN30AsyncQueueTest_UseThread2_Test8TestBodyEvEUlvE_EEEEE6_M_runEv
FN:211,_ZNSt6thread11_State_implINS_8_InvokerISt5tupleIJZN30AsyncQueueTest_UseThread2_Test8TestBodyEvEUlvE0_EEEEE6_M_runEv
FNDA:1,_ZNSt6thread11_State_implINS_8_InvokerISt5tupleIJZN30AsyncQueueTest_UseThread2_Test8TestBodyEvEUlvE0_EEEEE6_M_runEv
FN:243,_ZNSt6thread8_InvokerISt5tupleIJZN30AsyncQueueTest_UseThread1_Test8TestBodyEvEUlvE0_EEEC2IJS3_EEEDpOT_
FNDA:1,_ZNSt6thread8_InvokerISt5tupleIJZN30AsyncQueueTest_UseThread1_Test8TestBodyEvEUlvE0_EEEC2IJS3_EEEDpOT_
FN:243,_ZNSt6thread8_InvokerISt5tupleIJZN30AsyncQueueTest_UseThread1_Test8TestBodyEvEUlvE_EEEC2IJS3_EEEDpOT_
FNDA:1,_ZNSt6thread8_InvokerISt5tupleIJZN30AsyncQueueTest_UseThread1_Test8TestBodyEvEUlvE_EEEC2IJS3_EEEDpOT_
FN:243,_ZNSt6thread8_InvokerISt5tupleIJZN30AsyncQueueTest_UseThread2_Test8TestBodyEvEUlvE_EEEC2IJS3_EEEDpOT_
FNDA:1,_ZNSt6thread8_InvokerISt5tupleIJZN30AsyncQueueTest_UseThread2_Test8TestBodyEvEUlvE_EEEC2IJS3_EEEDpOT_
FN:243,_ZNSt6thread8_InvokerISt5tupleIJZN30AsyncQueueTest_UseThread2_Test8TestBodyEvEUlvE0_EEEC2IJS3_EEEDpOT_
FNDA:1,_ZNSt6thread8_InvokerISt5tupleIJZN30AsyncQueueTest_UseThread2_Test8TestBodyEvEUlvE0_EEEC2IJS3_EEEDpOT_
FN:258,_ZNSt6thread8_InvokerISt5tupleIJZN30AsyncQueueTest_UseThread1_Test8TestBodyEvEUlvE_EEE9_M_invokeIJLm0EEEEvSt12_Index_tupleIJXspT_EEE
FNDA:1,_ZNSt6thread8_InvokerISt5tupleIJZN30AsyncQueueTest_UseThread1_Test8TestBodyEvEUlvE_EEE9_M_invokeIJLm0EEEEvSt12_Index_tupleIJXspT_EEE
FN:258,_ZNSt6thread8_InvokerISt5tupleIJZN30AsyncQueueTest_UseThread2_Test8TestBodyEvEUlvE0_EEE9_M_invokeIJLm0EEEEvSt12_Index_tupleIJXspT_EEE
FNDA:1,_ZNSt6thread8_InvokerISt5tupleIJZN30AsyncQueueTest_UseThread2_Test8TestBodyEvEUlvE0_EEE9_M_invokeIJLm0EEEEvSt12_Index_tupleIJXspT_EEE
FN:258,_ZNSt6thread8_InvokerISt5tupleIJZN30AsyncQueueTest_UseThread2_Test8TestBodyEvEUlvE_EEE9_M_invokeIJLm0EEEEvSt12_Index_tupleIJXspT_EEE
FNDA:1,_ZNSt6thread8_InvokerISt5tupleIJZN30AsyncQueueTest_UseThread2_Test8TestBodyEvEUlvE_EEE9_M_invokeIJLm0EEEEvSt12_Index_tupleIJXspT_EEE
FN:258,_ZNSt6thread8_InvokerISt5tupleIJZN30AsyncQueueTest_UseThread1_Test8TestBodyEvEUlvE0_EEE9_M_invokeIJLm0EEEEvSt12_Index_tupleIJXspT_EEE
FNDA:1,_ZNSt6thread8_InvokerISt5tupleIJZN30AsyncQueueTest_UseThread1_Test8TestBodyEvEUlvE0_EEE9_M_invokeIJLm0EEEEvSt12_Index_tupleIJXspT_EEE
FN:262,_ZNSt6thread8_InvokerISt5tupleIJZN30AsyncQueueTest_UseThread2_Test8TestBodyEvEUlvE0_EEEclEv
FNDA:1,_ZNSt6thread8_InvokerISt5tupleIJZN30AsyncQueueTest_UseThread2_Test8TestBodyEvEUlvE0_EEEclEv
FN:262,_ZNSt6thread8_InvokerISt5tupleIJZN30AsyncQueueTest_UseThread2_Test8TestBodyEvEUlvE_EEEclEv
FNDA:1,_ZNSt6thread8_InvokerISt5tupleIJZN30AsyncQueueTest_UseThread2_Test8TestBodyEvEUlvE_EEEclEv
FN:262,_ZNSt6thread8_InvokerISt5tupleIJZN30AsyncQueueTest_UseThread1_Test8TestBodyEvEUlvE0_EEEclEv
FNDA:1,_ZNSt6thread8_InvokerISt5tupleIJZN30AsyncQueueTest_UseThread1_Test8TestBodyEvEUlvE0_EEEclEv
FN:262,_ZNSt6thread8_InvokerISt5tupleIJZN30AsyncQueueTest_UseThread1_Test8TestBodyEvEUlvE_EEEclEv
FNDA:1,_ZNSt6thread8_InvokerISt5tupleIJZN30AsyncQueueTest_UseThread1_Test8TestBodyEvEUlvE_EEEclEv
FN:287,_ZSteqNSt6thread2idES0_
FNDA:4,_ZSteqNSt6thread2idES0_
DA:86,8
DA:127,1
DA:128,1
DA:138,1
DA:143,2
DA:144,1
DA:146,1
DA:127,1
DA:128,1
DA:138,1
DA:143,2
DA:144,1
DA:146,1
DA:127,1
DA:128,1
DA:138,1
DA:143,2
DA:144,1
DA:146,1
DA:127,1
DA:128,1
DA:138,1
DA:143,2
DA:144,1
DA:146,1
DA:149,4
DA:151,4
DA:152,0
DA:153,4
DA:175,4
DA:176,4
DA:206,1
DA:207,1
DA:208,1
DA:206,1
DA:207,1
DA:208,1
DA:206,1
DA:207,1
DA:208,1
DA:206,1
DA:207,1
DA:208,1
DA:211,1
DA:211,1
DA:211,1
DA:211,1
DA:243,1
DA:244,1
DA:245,1
DA:243,1
DA:244,1
DA:245,1
DA:243,1
DA:244,1
DA:245,1
DA:243,1
DA:244,1
DA:245,1
DA:258,1
DA:259,1
DA:258,1
DA:259,1
DA:258,1
DA:259,1
DA:258,1
DA:259,1
DA:262,1
DA:266,1
DA:262,1
DA:266,1
DA:262,1
DA:266,1
DA:262,1
DA:266,1
DA:287,4
DA:293,4
end_of_record
